
bomb:     file format elf64-x86-64


Disassembly of section .init:

0000000000400a80 <_init>:
_init():
  400a80:	48 83 ec 08          	sub    $0x8,%rsp
  400a84:	48 8b 05 6d 25 20 00 	mov    0x20256d(%rip),%rax        # 602ff8 <__gmon_start__>
  400a8b:	48 85 c0             	test   %rax,%rax
  400a8e:	74 05                	je     400a95 <_init+0x15>
  400a90:	e8 bb 01 00 00       	callq  400c50 <__gmon_start__@plt>
  400a95:	48 83 c4 08          	add    $0x8,%rsp
  400a99:	c3                   	retq   

Disassembly of section .plt:

0000000000400aa0 <.plt>:
  400aa0:	ff 35 62 25 20 00    	pushq  0x202562(%rip)        # 603008 <_GLOBAL_OFFSET_TABLE_+0x8>
  400aa6:	ff 25 64 25 20 00    	jmpq   *0x202564(%rip)        # 603010 <_GLOBAL_OFFSET_TABLE_+0x10>
  400aac:	0f 1f 40 00          	nopl   0x0(%rax)

0000000000400ab0 <getenv@plt>:
  400ab0:	ff 25 62 25 20 00    	jmpq   *0x202562(%rip)        # 603018 <getenv@GLIBC_2.2.5>
  400ab6:	68 00 00 00 00       	pushq  $0x0
  400abb:	e9 e0 ff ff ff       	jmpq   400aa0 <.plt>

0000000000400ac0 <__errno_location@plt>:
  400ac0:	ff 25 5a 25 20 00    	jmpq   *0x20255a(%rip)        # 603020 <__errno_location@GLIBC_2.2.5>
  400ac6:	68 01 00 00 00       	pushq  $0x1
  400acb:	e9 d0 ff ff ff       	jmpq   400aa0 <.plt>

0000000000400ad0 <strcpy@plt>:
  400ad0:	ff 25 52 25 20 00    	jmpq   *0x202552(%rip)        # 603028 <strcpy@GLIBC_2.2.5>
  400ad6:	68 02 00 00 00       	pushq  $0x2
  400adb:	e9 c0 ff ff ff       	jmpq   400aa0 <.plt>

0000000000400ae0 <puts@plt>:
  400ae0:	ff 25 4a 25 20 00    	jmpq   *0x20254a(%rip)        # 603030 <puts@GLIBC_2.2.5>
  400ae6:	68 03 00 00 00       	pushq  $0x3
  400aeb:	e9 b0 ff ff ff       	jmpq   400aa0 <.plt>

0000000000400af0 <write@plt>:
  400af0:	ff 25 42 25 20 00    	jmpq   *0x202542(%rip)        # 603038 <write@GLIBC_2.2.5>
  400af6:	68 04 00 00 00       	pushq  $0x4
  400afb:	e9 a0 ff ff ff       	jmpq   400aa0 <.plt>

0000000000400b00 <__stack_chk_fail@plt>:
  400b00:	ff 25 3a 25 20 00    	jmpq   *0x20253a(%rip)        # 603040 <__stack_chk_fail@GLIBC_2.4>
  400b06:	68 05 00 00 00       	pushq  $0x5
  400b0b:	e9 90 ff ff ff       	jmpq   400aa0 <.plt>

0000000000400b10 <alarm@plt>:
  400b10:	ff 25 32 25 20 00    	jmpq   *0x202532(%rip)        # 603048 <alarm@GLIBC_2.2.5>
  400b16:	68 06 00 00 00       	pushq  $0x6
  400b1b:	e9 80 ff ff ff       	jmpq   400aa0 <.plt>

0000000000400b20 <close@plt>:
  400b20:	ff 25 2a 25 20 00    	jmpq   *0x20252a(%rip)        # 603050 <close@GLIBC_2.2.5>
  400b26:	68 07 00 00 00       	pushq  $0x7
  400b2b:	e9 70 ff ff ff       	jmpq   400aa0 <.plt>

0000000000400b30 <read@plt>:
  400b30:	ff 25 22 25 20 00    	jmpq   *0x202522(%rip)        # 603058 <read@GLIBC_2.2.5>
  400b36:	68 08 00 00 00       	pushq  $0x8
  400b3b:	e9 60 ff ff ff       	jmpq   400aa0 <.plt>

0000000000400b40 <__libc_start_main@plt>:
  400b40:	ff 25 1a 25 20 00    	jmpq   *0x20251a(%rip)        # 603060 <__libc_start_main@GLIBC_2.2.5>
  400b46:	68 09 00 00 00       	pushq  $0x9
  400b4b:	e9 50 ff ff ff       	jmpq   400aa0 <.plt>

0000000000400b50 <fgets@plt>:
  400b50:	ff 25 12 25 20 00    	jmpq   *0x202512(%rip)        # 603068 <fgets@GLIBC_2.2.5>
  400b56:	68 0a 00 00 00       	pushq  $0xa
  400b5b:	e9 40 ff ff ff       	jmpq   400aa0 <.plt>

0000000000400b60 <signal@plt>:
  400b60:	ff 25 0a 25 20 00    	jmpq   *0x20250a(%rip)        # 603070 <signal@GLIBC_2.2.5>
  400b66:	68 0b 00 00 00       	pushq  $0xb
  400b6b:	e9 30 ff ff ff       	jmpq   400aa0 <.plt>

0000000000400b70 <gethostbyname@plt>:
  400b70:	ff 25 02 25 20 00    	jmpq   *0x202502(%rip)        # 603078 <gethostbyname@GLIBC_2.2.5>
  400b76:	68 0c 00 00 00       	pushq  $0xc
  400b7b:	e9 20 ff ff ff       	jmpq   400aa0 <.plt>

0000000000400b80 <__memmove_chk@plt>:
  400b80:	ff 25 fa 24 20 00    	jmpq   *0x2024fa(%rip)        # 603080 <__memmove_chk@GLIBC_2.3.4>
  400b86:	68 0d 00 00 00       	pushq  $0xd
  400b8b:	e9 10 ff ff ff       	jmpq   400aa0 <.plt>

0000000000400b90 <strtol@plt>:
  400b90:	ff 25 f2 24 20 00    	jmpq   *0x2024f2(%rip)        # 603088 <strtol@GLIBC_2.2.5>
  400b96:	68 0e 00 00 00       	pushq  $0xe
  400b9b:	e9 00 ff ff ff       	jmpq   400aa0 <.plt>

0000000000400ba0 <fflush@plt>:
  400ba0:	ff 25 ea 24 20 00    	jmpq   *0x2024ea(%rip)        # 603090 <fflush@GLIBC_2.2.5>
  400ba6:	68 0f 00 00 00       	pushq  $0xf
  400bab:	e9 f0 fe ff ff       	jmpq   400aa0 <.plt>

0000000000400bb0 <__isoc99_sscanf@plt>:
  400bb0:	ff 25 e2 24 20 00    	jmpq   *0x2024e2(%rip)        # 603098 <__isoc99_sscanf@GLIBC_2.7>
  400bb6:	68 10 00 00 00       	pushq  $0x10
  400bbb:	e9 e0 fe ff ff       	jmpq   400aa0 <.plt>

0000000000400bc0 <__printf_chk@plt>:
  400bc0:	ff 25 da 24 20 00    	jmpq   *0x2024da(%rip)        # 6030a0 <__printf_chk@GLIBC_2.3.4>
  400bc6:	68 11 00 00 00       	pushq  $0x11
  400bcb:	e9 d0 fe ff ff       	jmpq   400aa0 <.plt>

0000000000400bd0 <fopen@plt>:
  400bd0:	ff 25 d2 24 20 00    	jmpq   *0x2024d2(%rip)        # 6030a8 <fopen@GLIBC_2.2.5>
  400bd6:	68 12 00 00 00       	pushq  $0x12
  400bdb:	e9 c0 fe ff ff       	jmpq   400aa0 <.plt>

0000000000400be0 <exit@plt>:
  400be0:	ff 25 ca 24 20 00    	jmpq   *0x2024ca(%rip)        # 6030b0 <exit@GLIBC_2.2.5>
  400be6:	68 13 00 00 00       	pushq  $0x13
  400beb:	e9 b0 fe ff ff       	jmpq   400aa0 <.plt>

0000000000400bf0 <connect@plt>:
  400bf0:	ff 25 c2 24 20 00    	jmpq   *0x2024c2(%rip)        # 6030b8 <connect@GLIBC_2.2.5>
  400bf6:	68 14 00 00 00       	pushq  $0x14
  400bfb:	e9 a0 fe ff ff       	jmpq   400aa0 <.plt>

0000000000400c00 <__fprintf_chk@plt>:
  400c00:	ff 25 ba 24 20 00    	jmpq   *0x2024ba(%rip)        # 6030c0 <__fprintf_chk@GLIBC_2.3.4>
  400c06:	68 15 00 00 00       	pushq  $0x15
  400c0b:	e9 90 fe ff ff       	jmpq   400aa0 <.plt>

0000000000400c10 <sleep@plt>:
  400c10:	ff 25 b2 24 20 00    	jmpq   *0x2024b2(%rip)        # 6030c8 <sleep@GLIBC_2.2.5>
  400c16:	68 16 00 00 00       	pushq  $0x16
  400c1b:	e9 80 fe ff ff       	jmpq   400aa0 <.plt>

0000000000400c20 <__ctype_b_loc@plt>:
  400c20:	ff 25 aa 24 20 00    	jmpq   *0x2024aa(%rip)        # 6030d0 <__ctype_b_loc@GLIBC_2.3>
  400c26:	68 17 00 00 00       	pushq  $0x17
  400c2b:	e9 70 fe ff ff       	jmpq   400aa0 <.plt>

0000000000400c30 <__sprintf_chk@plt>:
  400c30:	ff 25 a2 24 20 00    	jmpq   *0x2024a2(%rip)        # 6030d8 <__sprintf_chk@GLIBC_2.3.4>
  400c36:	68 18 00 00 00       	pushq  $0x18
  400c3b:	e9 60 fe ff ff       	jmpq   400aa0 <.plt>

0000000000400c40 <socket@plt>:
  400c40:	ff 25 9a 24 20 00    	jmpq   *0x20249a(%rip)        # 6030e0 <socket@GLIBC_2.2.5>
  400c46:	68 19 00 00 00       	pushq  $0x19
  400c4b:	e9 50 fe ff ff       	jmpq   400aa0 <.plt>

Disassembly of section .plt.got:

0000000000400c50 <__gmon_start__@plt>:
  400c50:	ff 25 a2 23 20 00    	jmpq   *0x2023a2(%rip)        # 602ff8 <__gmon_start__>
  400c56:	66 90                	xchg   %ax,%ax

Disassembly of section .text:

0000000000400c60 <_start>:
_start():
  400c60:	31 ed                	xor    %ebp,%ebp
  400c62:	49 89 d1             	mov    %rdx,%r9
  400c65:	5e                   	pop    %rsi
  400c66:	48 89 e2             	mov    %rsp,%rdx
  400c69:	48 83 e4 f0          	and    $0xfffffffffffffff0,%rsp
  400c6d:	50                   	push   %rax
  400c6e:	54                   	push   %rsp
  400c6f:	49 c7 c0 40 22 40 00 	mov    $0x402240,%r8
  400c76:	48 c7 c1 d0 21 40 00 	mov    $0x4021d0,%rcx
  400c7d:	48 c7 c7 56 0d 40 00 	mov    $0x400d56,%rdi
  400c84:	e8 b7 fe ff ff       	callq  400b40 <__libc_start_main@plt>
  400c89:	f4                   	hlt    
  400c8a:	66 0f 1f 44 00 00    	nopw   0x0(%rax,%rax,1)

0000000000400c90 <deregister_tm_clones>:
deregister_tm_clones():
  400c90:	b8 67 37 60 00       	mov    $0x603767,%eax
  400c95:	55                   	push   %rbp
  400c96:	48 2d 60 37 60 00    	sub    $0x603760,%rax
  400c9c:	48 83 f8 0e          	cmp    $0xe,%rax
  400ca0:	48 89 e5             	mov    %rsp,%rbp
  400ca3:	76 1b                	jbe    400cc0 <deregister_tm_clones+0x30>
  400ca5:	b8 00 00 00 00       	mov    $0x0,%eax
  400caa:	48 85 c0             	test   %rax,%rax
  400cad:	74 11                	je     400cc0 <deregister_tm_clones+0x30>
  400caf:	5d                   	pop    %rbp
  400cb0:	bf 60 37 60 00       	mov    $0x603760,%edi
  400cb5:	ff e0                	jmpq   *%rax
  400cb7:	66 0f 1f 84 00 00 00 	nopw   0x0(%rax,%rax,1)
  400cbe:	00 00 
  400cc0:	5d                   	pop    %rbp
  400cc1:	c3                   	retq   
  400cc2:	0f 1f 40 00          	nopl   0x0(%rax)
  400cc6:	66 2e 0f 1f 84 00 00 	nopw   %cs:0x0(%rax,%rax,1)
  400ccd:	00 00 00 

0000000000400cd0 <register_tm_clones>:
register_tm_clones():
  400cd0:	be 60 37 60 00       	mov    $0x603760,%esi
  400cd5:	55                   	push   %rbp
  400cd6:	48 81 ee 60 37 60 00 	sub    $0x603760,%rsi
  400cdd:	48 c1 fe 03          	sar    $0x3,%rsi
  400ce1:	48 89 e5             	mov    %rsp,%rbp
  400ce4:	48 89 f0             	mov    %rsi,%rax
  400ce7:	48 c1 e8 3f          	shr    $0x3f,%rax
  400ceb:	48 01 c6             	add    %rax,%rsi
  400cee:	48 d1 fe             	sar    %rsi
  400cf1:	74 15                	je     400d08 <register_tm_clones+0x38>
  400cf3:	b8 00 00 00 00       	mov    $0x0,%eax
  400cf8:	48 85 c0             	test   %rax,%rax
  400cfb:	74 0b                	je     400d08 <register_tm_clones+0x38>
  400cfd:	5d                   	pop    %rbp
  400cfe:	bf 60 37 60 00       	mov    $0x603760,%edi
  400d03:	ff e0                	jmpq   *%rax
  400d05:	0f 1f 00             	nopl   (%rax)
  400d08:	5d                   	pop    %rbp
  400d09:	c3                   	retq   
  400d0a:	66 0f 1f 44 00 00    	nopw   0x0(%rax,%rax,1)

0000000000400d10 <__do_global_dtors_aux>:
__do_global_dtors_aux():
  400d10:	80 3d 71 2a 20 00 00 	cmpb   $0x0,0x202a71(%rip)        # 603788 <completed.7585>
  400d17:	75 11                	jne    400d2a <__do_global_dtors_aux+0x1a>
  400d19:	55                   	push   %rbp
  400d1a:	48 89 e5             	mov    %rsp,%rbp
  400d1d:	e8 6e ff ff ff       	callq  400c90 <deregister_tm_clones>
  400d22:	5d                   	pop    %rbp
  400d23:	c6 05 5e 2a 20 00 01 	movb   $0x1,0x202a5e(%rip)        # 603788 <completed.7585>
  400d2a:	f3 c3                	repz retq 
  400d2c:	0f 1f 40 00          	nopl   0x0(%rax)

0000000000400d30 <frame_dummy>:
frame_dummy():
  400d30:	bf 20 2e 60 00       	mov    $0x602e20,%edi
  400d35:	48 83 3f 00          	cmpq   $0x0,(%rdi)
  400d39:	75 05                	jne    400d40 <frame_dummy+0x10>
  400d3b:	eb 93                	jmp    400cd0 <register_tm_clones>
  400d3d:	0f 1f 00             	nopl   (%rax)
  400d40:	b8 00 00 00 00       	mov    $0x0,%eax
  400d45:	48 85 c0             	test   %rax,%rax
  400d48:	74 f1                	je     400d3b <frame_dummy+0xb>
  400d4a:	55                   	push   %rbp
  400d4b:	48 89 e5             	mov    %rsp,%rbp
  400d4e:	ff d0                	callq  *%rax
  400d50:	5d                   	pop    %rbp
  400d51:	e9 7a ff ff ff       	jmpq   400cd0 <register_tm_clones>

0000000000400d56 <main>:
main():
/home/hit/hitics/lab-teacher/lab2/src/bomb.c:37
  400d56:	53                   	push   %rbx
/home/hit/hitics/lab-teacher/lab2/src/bomb.c:45
  400d57:	83 ff 01             	cmp    $0x1,%edi
  400d5a:	75 10                	jne    400d6c <main+0x16>
/home/hit/hitics/lab-teacher/lab2/src/bomb.c:46
  400d5c:	48 8b 05 0d 2a 20 00 	mov    0x202a0d(%rip),%rax        # 603770 <stdin@@GLIBC_2.2.5>
  400d63:	48 89 05 26 2a 20 00 	mov    %rax,0x202a26(%rip)        # 603790 <infile>
  400d6a:	eb 63                	jmp    400dcf <main+0x79>
  400d6c:	48 89 f3             	mov    %rsi,%rbx
/home/hit/hitics/lab-teacher/lab2/src/bomb.c:53
  400d6f:	83 ff 02             	cmp    $0x2,%edi
  400d72:	75 3a                	jne    400dae <main+0x58>
/home/hit/hitics/lab-teacher/lab2/src/bomb.c:54
  400d74:	48 8b 7e 08          	mov    0x8(%rsi),%rdi
  400d78:	be 64 22 40 00       	mov    $0x402264,%esi
  400d7d:	e8 4e fe ff ff       	callq  400bd0 <fopen@plt>
  400d82:	48 89 05 07 2a 20 00 	mov    %rax,0x202a07(%rip)        # 603790 <infile>
  400d89:	48 85 c0             	test   %rax,%rax
  400d8c:	75 41                	jne    400dcf <main+0x79>
printf():
/usr/include/x86_64-linux-gnu/bits/stdio2.h:104
  400d8e:	48 8b 4b 08          	mov    0x8(%rbx),%rcx
  400d92:	48 8b 13             	mov    (%rbx),%rdx
  400d95:	be 66 22 40 00       	mov    $0x402266,%esi
  400d9a:	bf 01 00 00 00       	mov    $0x1,%edi
  400d9f:	e8 1c fe ff ff       	callq  400bc0 <__printf_chk@plt>
main():
/home/hit/hitics/lab-teacher/lab2/src/bomb.c:56
  400da4:	bf 08 00 00 00       	mov    $0x8,%edi
  400da9:	e8 32 fe ff ff       	callq  400be0 <exit@plt>
printf():
/usr/include/x86_64-linux-gnu/bits/stdio2.h:104
  400dae:	48 8b 16             	mov    (%rsi),%rdx
  400db1:	be 83 22 40 00       	mov    $0x402283,%esi
  400db6:	bf 01 00 00 00       	mov    $0x1,%edi
  400dbb:	b8 00 00 00 00       	mov    $0x0,%eax
  400dc0:	e8 fb fd ff ff       	callq  400bc0 <__printf_chk@plt>
main():
/home/hit/hitics/lab-teacher/lab2/src/bomb.c:63
  400dc5:	bf 08 00 00 00       	mov    $0x8,%edi
  400dca:	e8 11 fe ff ff       	callq  400be0 <exit@plt>
/home/hit/hitics/lab-teacher/lab2/src/bomb.c:67
  400dcf:	e8 ba 05 00 00       	callq  40138e <initialize_bomb>
printf():
/usr/include/x86_64-linux-gnu/bits/stdio2.h:104
  400dd4:	bf e8 22 40 00       	mov    $0x4022e8,%edi
  400dd9:	e8 02 fd ff ff       	callq  400ae0 <puts@plt>
  400dde:	bf 28 23 40 00       	mov    $0x402328,%edi
  400de3:	e8 f8 fc ff ff       	callq  400ae0 <puts@plt>
main():
/home/hit/hitics/lab-teacher/lab2/src/bomb.c:73
  400de8:	e8 9a 06 00 00       	callq  401487 <read_line>
/home/hit/hitics/lab-teacher/lab2/src/bomb.c:74
  400ded:	48 89 c7             	mov    %rax,%rdi
  400df0:	e8 98 00 00 00       	callq  400e8d <phase_1>
/home/hit/hitics/lab-teacher/lab2/src/bomb.c:75
  400df5:	e8 b3 07 00 00       	callq  4015ad <phase_defused>
printf():
/usr/include/x86_64-linux-gnu/bits/stdio2.h:104
  400dfa:	bf 58 23 40 00       	mov    $0x402358,%edi
  400dff:	e8 dc fc ff ff       	callq  400ae0 <puts@plt>
main():
/home/hit/hitics/lab-teacher/lab2/src/bomb.c:81
  400e04:	e8 7e 06 00 00       	callq  401487 <read_line>
/home/hit/hitics/lab-teacher/lab2/src/bomb.c:82
  400e09:	48 89 c7             	mov    %rax,%rdi
  400e0c:	e8 98 00 00 00       	callq  400ea9 <phase_2>
/home/hit/hitics/lab-teacher/lab2/src/bomb.c:83
  400e11:	e8 97 07 00 00       	callq  4015ad <phase_defused>
printf():
/usr/include/x86_64-linux-gnu/bits/stdio2.h:104
  400e16:	bf 9d 22 40 00       	mov    $0x40229d,%edi
  400e1b:	e8 c0 fc ff ff       	callq  400ae0 <puts@plt>
main():
/home/hit/hitics/lab-teacher/lab2/src/bomb.c:88
  400e20:	e8 62 06 00 00       	callq  401487 <read_line>
/home/hit/hitics/lab-teacher/lab2/src/bomb.c:89
  400e25:	48 89 c7             	mov    %rax,%rdi
  400e28:	e8 e4 00 00 00       	callq  400f11 <phase_3>
/home/hit/hitics/lab-teacher/lab2/src/bomb.c:90
  400e2d:	e8 7b 07 00 00       	callq  4015ad <phase_defused>
printf():
/usr/include/x86_64-linux-gnu/bits/stdio2.h:104
  400e32:	bf bb 22 40 00       	mov    $0x4022bb,%edi
  400e37:	e8 a4 fc ff ff       	callq  400ae0 <puts@plt>
main():
/home/hit/hitics/lab-teacher/lab2/src/bomb.c:94
  400e3c:	e8 46 06 00 00       	callq  401487 <read_line>
/home/hit/hitics/lab-teacher/lab2/src/bomb.c:95
  400e41:	48 89 c7             	mov    %rax,%rdi
  400e44:	e8 ad 01 00 00       	callq  400ff6 <phase_4>
/home/hit/hitics/lab-teacher/lab2/src/bomb.c:96
  400e49:	e8 5f 07 00 00       	callq  4015ad <phase_defused>
printf():
/usr/include/x86_64-linux-gnu/bits/stdio2.h:104
  400e4e:	bf 88 23 40 00       	mov    $0x402388,%edi
  400e53:	e8 88 fc ff ff       	callq  400ae0 <puts@plt>
main():
/home/hit/hitics/lab-teacher/lab2/src/bomb.c:100
  400e58:	e8 2a 06 00 00       	callq  401487 <read_line>
/home/hit/hitics/lab-teacher/lab2/src/bomb.c:101
  400e5d:	48 89 c7             	mov    %rax,%rdi
  400e60:	e8 04 02 00 00       	callq  401069 <phase_5>
/home/hit/hitics/lab-teacher/lab2/src/bomb.c:102
  400e65:	e8 43 07 00 00       	callq  4015ad <phase_defused>
printf():
/usr/include/x86_64-linux-gnu/bits/stdio2.h:104
  400e6a:	bf ca 22 40 00       	mov    $0x4022ca,%edi
  400e6f:	e8 6c fc ff ff       	callq  400ae0 <puts@plt>
main():
/home/hit/hitics/lab-teacher/lab2/src/bomb.c:107
  400e74:	e8 0e 06 00 00       	callq  401487 <read_line>
/home/hit/hitics/lab-teacher/lab2/src/bomb.c:108
  400e79:	48 89 c7             	mov    %rax,%rdi
  400e7c:	e8 74 02 00 00       	callq  4010f5 <phase_6>
/home/hit/hitics/lab-teacher/lab2/src/bomb.c:109
  400e81:	e8 27 07 00 00       	callq  4015ad <phase_defused>
/home/hit/hitics/lab-teacher/lab2/src/bomb.c:115
  400e86:	b8 00 00 00 00       	mov    $0x0,%eax
  400e8b:	5b                   	pop    %rbx
  400e8c:	c3                   	retq   

0000000000400e8d <phase_1>:
phase_1():
  400e8d:	48 83 ec 08          	sub    $0x8,%rsp
  400e91:	be b0 23 40 00       	mov    $0x4023b0,%esi
  400e96:	e8 8c 04 00 00       	callq  401327 <strings_not_equal>
  400e9b:	85 c0                	test   %eax,%eax
  400e9d:	74 05                	je     400ea4 <phase_1+0x17>
  400e9f:	e8 82 05 00 00       	callq  401426 <explode_bomb>
  400ea4:	48 83 c4 08          	add    $0x8,%rsp
  400ea8:	c3                   	retq   

0000000000400ea9 <phase_2>:
phase_2():
  400ea9:	55                   	push   %rbp
  400eaa:	53                   	push   %rbx
  400eab:	48 83 ec 28          	sub    $0x28,%rsp
  400eaf:	64 48 8b 04 25 28 00 	mov    %fs:0x28,%rax
  400eb6:	00 00 
  400eb8:	48 89 44 24 18       	mov    %rax,0x18(%rsp)
  400ebd:	31 c0                	xor    %eax,%eax
  400ebf:	48 89 e6             	mov    %rsp,%rsi
  400ec2:	e8 81 05 00 00       	callq  401448 <read_six_numbers>
  400ec7:	83 3c 24 00          	cmpl   $0x0,(%rsp)
  400ecb:	79 05                	jns    400ed2 <phase_2+0x29>
  400ecd:	e8 54 05 00 00       	callq  401426 <explode_bomb>
  400ed2:	48 89 e5             	mov    %rsp,%rbp
  400ed5:	bb 01 00 00 00       	mov    $0x1,%ebx
  400eda:	89 d8                	mov    %ebx,%eax
  400edc:	03 45 00             	add    0x0(%rbp),%eax
  400edf:	39 45 04             	cmp    %eax,0x4(%rbp)
  400ee2:	74 05                	je     400ee9 <phase_2+0x40>
  400ee4:	e8 3d 05 00 00       	callq  401426 <explode_bomb>
  400ee9:	83 c3 01             	add    $0x1,%ebx
  400eec:	48 83 c5 04          	add    $0x4,%rbp
  400ef0:	83 fb 06             	cmp    $0x6,%ebx
  400ef3:	75 e5                	jne    400eda <phase_2+0x31>
  400ef5:	48 8b 44 24 18       	mov    0x18(%rsp),%rax
  400efa:	64 48 33 04 25 28 00 	xor    %fs:0x28,%rax
  400f01:	00 00 
  400f03:	74 05                	je     400f0a <phase_2+0x61>
  400f05:	e8 f6 fb ff ff       	callq  400b00 <__stack_chk_fail@plt>
  400f0a:	48 83 c4 28          	add    $0x28,%rsp
  400f0e:	5b                   	pop    %rbx
  400f0f:	5d                   	pop    %rbp
  400f10:	c3                   	retq   

0000000000400f11 <phase_3>:
phase_3():
  400f11:	48 83 ec 18          	sub    $0x18,%rsp
  400f15:	64 48 8b 04 25 28 00 	mov    %fs:0x28,%rax
  400f1c:	00 00 
  400f1e:	48 89 44 24 08       	mov    %rax,0x8(%rsp)
  400f23:	31 c0                	xor    %eax,%eax
  400f25:	48 8d 4c 24 04       	lea    0x4(%rsp),%rcx
  400f2a:	48 89 e2             	mov    %rsp,%rdx
  400f2d:	be af 25 40 00       	mov    $0x4025af,%esi
  400f32:	e8 79 fc ff ff       	callq  400bb0 <__isoc99_sscanf@plt>
  400f37:	83 f8 01             	cmp    $0x1,%eax
  400f3a:	7f 05                	jg     400f41 <phase_3+0x30>
  400f3c:	e8 e5 04 00 00       	callq  401426 <explode_bomb>
  400f41:	83 3c 24 07          	cmpl   $0x7,(%rsp)
  400f45:	77 3b                	ja     400f82 <phase_3+0x71>
  400f47:	8b 04 24             	mov    (%rsp),%eax
  400f4a:	ff 24 c5 20 24 40 00 	jmpq   *0x402420(,%rax,8)
  400f51:	b8 c9 03 00 00       	mov    $0x3c9,%eax
  400f56:	eb 3b                	jmp    400f93 <phase_3+0x82>
  400f58:	b8 db 01 00 00       	mov    $0x1db,%eax
  400f5d:	eb 34                	jmp    400f93 <phase_3+0x82>
  400f5f:	b8 4b 02 00 00       	mov    $0x24b,%eax
  400f64:	eb 2d                	jmp    400f93 <phase_3+0x82>
  400f66:	b8 e1 02 00 00       	mov    $0x2e1,%eax
  400f6b:	eb 26                	jmp    400f93 <phase_3+0x82>
  400f6d:	b8 50 02 00 00       	mov    $0x250,%eax
  400f72:	eb 1f                	jmp    400f93 <phase_3+0x82>
  400f74:	b8 66 01 00 00       	mov    $0x166,%eax
  400f79:	eb 18                	jmp    400f93 <phase_3+0x82>
  400f7b:	b8 c7 02 00 00       	mov    $0x2c7,%eax
  400f80:	eb 11                	jmp    400f93 <phase_3+0x82>
  400f82:	e8 9f 04 00 00       	callq  401426 <explode_bomb>
  400f87:	b8 00 00 00 00       	mov    $0x0,%eax
  400f8c:	eb 05                	jmp    400f93 <phase_3+0x82>
  400f8e:	b8 05 02 00 00       	mov    $0x205,%eax
  400f93:	3b 44 24 04          	cmp    0x4(%rsp),%eax
  400f97:	74 05                	je     400f9e <phase_3+0x8d>
  400f99:	e8 88 04 00 00       	callq  401426 <explode_bomb>
  400f9e:	48 8b 44 24 08       	mov    0x8(%rsp),%rax
  400fa3:	64 48 33 04 25 28 00 	xor    %fs:0x28,%rax
  400faa:	00 00 
  400fac:	74 05                	je     400fb3 <phase_3+0xa2>
  400fae:	e8 4d fb ff ff       	callq  400b00 <__stack_chk_fail@plt>
  400fb3:	48 83 c4 18          	add    $0x18,%rsp
  400fb7:	c3                   	retq   

0000000000400fb8 <func4>:
func4():
  400fb8:	48 83 ec 08          	sub    $0x8,%rsp
  400fbc:	89 d0                	mov    %edx,%eax
  400fbe:	29 f0                	sub    %esi,%eax
  400fc0:	89 c1                	mov    %eax,%ecx
  400fc2:	c1 e9 1f             	shr    $0x1f,%ecx
  400fc5:	01 c8                	add    %ecx,%eax
  400fc7:	d1 f8                	sar    %eax
  400fc9:	8d 0c 30             	lea    (%rax,%rsi,1),%ecx
  400fcc:	39 f9                	cmp    %edi,%ecx
  400fce:	7e 0c                	jle    400fdc <func4+0x24>
  400fd0:	8d 51 ff             	lea    -0x1(%rcx),%edx
  400fd3:	e8 e0 ff ff ff       	callq  400fb8 <func4>
  400fd8:	01 c0                	add    %eax,%eax
  400fda:	eb 15                	jmp    400ff1 <func4+0x39>
  400fdc:	b8 00 00 00 00       	mov    $0x0,%eax
  400fe1:	39 f9                	cmp    %edi,%ecx
  400fe3:	7d 0c                	jge    400ff1 <func4+0x39>
  400fe5:	8d 71 01             	lea    0x1(%rcx),%esi
  400fe8:	e8 cb ff ff ff       	callq  400fb8 <func4>
  400fed:	8d 44 00 01          	lea    0x1(%rax,%rax,1),%eax
  400ff1:	48 83 c4 08          	add    $0x8,%rsp
  400ff5:	c3                   	retq   

0000000000400ff6 <phase_4>:
phase_4():
  400ff6:	48 83 ec 18          	sub    $0x18,%rsp
  400ffa:	64 48 8b 04 25 28 00 	mov    %fs:0x28,%rax
  401001:	00 00 
  401003:	48 89 44 24 08       	mov    %rax,0x8(%rsp)
  401008:	31 c0                	xor    %eax,%eax
  40100a:	48 8d 4c 24 04       	lea    0x4(%rsp),%rcx
  40100f:	48 89 e2             	mov    %rsp,%rdx
  401012:	be af 25 40 00       	mov    $0x4025af,%esi
  401017:	e8 94 fb ff ff       	callq  400bb0 <__isoc99_sscanf@plt>
  40101c:	83 f8 02             	cmp    $0x2,%eax
  40101f:	75 06                	jne    401027 <phase_4+0x31>
  401021:	83 3c 24 0e          	cmpl   $0xe,(%rsp)
  401025:	76 05                	jbe    40102c <phase_4+0x36>
  401027:	e8 fa 03 00 00       	callq  401426 <explode_bomb>
  40102c:	ba 0e 00 00 00       	mov    $0xe,%edx
  401031:	be 00 00 00 00       	mov    $0x0,%esi
  401036:	8b 3c 24             	mov    (%rsp),%edi
  401039:	e8 7a ff ff ff       	callq  400fb8 <func4>
  40103e:	83 f8 01             	cmp    $0x1,%eax
  401041:	75 07                	jne    40104a <phase_4+0x54>
  401043:	83 7c 24 04 01       	cmpl   $0x1,0x4(%rsp)
  401048:	74 05                	je     40104f <phase_4+0x59>
  40104a:	e8 d7 03 00 00       	callq  401426 <explode_bomb>
  40104f:	48 8b 44 24 08       	mov    0x8(%rsp),%rax
  401054:	64 48 33 04 25 28 00 	xor    %fs:0x28,%rax
  40105b:	00 00 
  40105d:	74 05                	je     401064 <phase_4+0x6e>
  40105f:	e8 9c fa ff ff       	callq  400b00 <__stack_chk_fail@plt>
  401064:	48 83 c4 18          	add    $0x18,%rsp
  401068:	c3                   	retq   

0000000000401069 <phase_5>:
phase_5():
  401069:	48 83 ec 18          	sub    $0x18,%rsp
  40106d:	64 48 8b 04 25 28 00 	mov    %fs:0x28,%rax
  401074:	00 00 
  401076:	48 89 44 24 08       	mov    %rax,0x8(%rsp)
  40107b:	31 c0                	xor    %eax,%eax
  40107d:	48 8d 4c 24 04       	lea    0x4(%rsp),%rcx
  401082:	48 89 e2             	mov    %rsp,%rdx
  401085:	be af 25 40 00       	mov    $0x4025af,%esi
  40108a:	e8 21 fb ff ff       	callq  400bb0 <__isoc99_sscanf@plt>
  40108f:	83 f8 01             	cmp    $0x1,%eax
  401092:	7f 05                	jg     401099 <phase_5+0x30>
  401094:	e8 8d 03 00 00       	callq  401426 <explode_bomb>
  401099:	8b 04 24             	mov    (%rsp),%eax
  40109c:	83 e0 0f             	and    $0xf,%eax
  40109f:	89 04 24             	mov    %eax,(%rsp)
  4010a2:	83 f8 0f             	cmp    $0xf,%eax
  4010a5:	74 2f                	je     4010d6 <phase_5+0x6d>
  4010a7:	b9 00 00 00 00       	mov    $0x0,%ecx
  4010ac:	ba 00 00 00 00       	mov    $0x0,%edx
  4010b1:	83 c2 01             	add    $0x1,%edx
  4010b4:	48 98                	cltq   
  4010b6:	8b 04 85 60 24 40 00 	mov    0x402460(,%rax,4),%eax
  4010bd:	01 c1                	add    %eax,%ecx
  4010bf:	83 f8 0f             	cmp    $0xf,%eax
  4010c2:	75 ed                	jne    4010b1 <phase_5+0x48>
  4010c4:	c7 04 24 0f 00 00 00 	movl   $0xf,(%rsp)
  4010cb:	83 fa 0f             	cmp    $0xf,%edx
  4010ce:	75 06                	jne    4010d6 <phase_5+0x6d>
  4010d0:	3b 4c 24 04          	cmp    0x4(%rsp),%ecx
  4010d4:	74 05                	je     4010db <phase_5+0x72>
  4010d6:	e8 4b 03 00 00       	callq  401426 <explode_bomb>
  4010db:	48 8b 44 24 08       	mov    0x8(%rsp),%rax
  4010e0:	64 48 33 04 25 28 00 	xor    %fs:0x28,%rax
  4010e7:	00 00 
  4010e9:	74 05                	je     4010f0 <phase_5+0x87>
  4010eb:	e8 10 fa ff ff       	callq  400b00 <__stack_chk_fail@plt>
  4010f0:	48 83 c4 18          	add    $0x18,%rsp
  4010f4:	c3                   	retq   

00000000004010f5 <phase_6>:
phase_6():
  4010f5:	41 55                	push   %r13
  4010f7:	41 54                	push   %r12
  4010f9:	55                   	push   %rbp
  4010fa:	53                   	push   %rbx
  4010fb:	48 83 ec 68          	sub    $0x68,%rsp
  4010ff:	64 48 8b 04 25 28 00 	mov    %fs:0x28,%rax
  401106:	00 00 
  401108:	48 89 44 24 58       	mov    %rax,0x58(%rsp)
  40110d:	31 c0                	xor    %eax,%eax
  40110f:	48 89 e6             	mov    %rsp,%rsi
  401112:	e8 31 03 00 00       	callq  401448 <read_six_numbers>
  401117:	49 89 e4             	mov    %rsp,%r12
  40111a:	41 bd 00 00 00 00    	mov    $0x0,%r13d
  401120:	4c 89 e5             	mov    %r12,%rbp
  401123:	41 8b 04 24          	mov    (%r12),%eax
  401127:	83 e8 01             	sub    $0x1,%eax
  40112a:	83 f8 05             	cmp    $0x5,%eax
  40112d:	76 05                	jbe    401134 <phase_6+0x3f>
  40112f:	e8 f2 02 00 00       	callq  401426 <explode_bomb>
  401134:	41 83 c5 01          	add    $0x1,%r13d
  401138:	41 83 fd 06          	cmp    $0x6,%r13d
  40113c:	74 3d                	je     40117b <phase_6+0x86>
  40113e:	44 89 eb             	mov    %r13d,%ebx
  401141:	48 63 c3             	movslq %ebx,%rax
  401144:	8b 04 84             	mov    (%rsp,%rax,4),%eax
  401147:	39 45 00             	cmp    %eax,0x0(%rbp)
  40114a:	75 05                	jne    401151 <phase_6+0x5c>
  40114c:	e8 d5 02 00 00       	callq  401426 <explode_bomb>
  401151:	83 c3 01             	add    $0x1,%ebx
  401154:	83 fb 05             	cmp    $0x5,%ebx
  401157:	7e e8                	jle    401141 <phase_6+0x4c>
  401159:	49 83 c4 04          	add    $0x4,%r12
  40115d:	eb c1                	jmp    401120 <phase_6+0x2b>
  40115f:	48 8b 52 08          	mov    0x8(%rdx),%rdx
  401163:	83 c0 01             	add    $0x1,%eax
  401166:	39 c8                	cmp    %ecx,%eax
  401168:	75 f5                	jne    40115f <phase_6+0x6a>
  40116a:	48 89 54 74 20       	mov    %rdx,0x20(%rsp,%rsi,2)
  40116f:	48 83 c6 04          	add    $0x4,%rsi
  401173:	48 83 fe 18          	cmp    $0x18,%rsi
  401177:	75 07                	jne    401180 <phase_6+0x8b>
  401179:	eb 19                	jmp    401194 <phase_6+0x9f>
  40117b:	be 00 00 00 00       	mov    $0x0,%esi
  401180:	8b 0c 34             	mov    (%rsp,%rsi,1),%ecx
  401183:	b8 01 00 00 00       	mov    $0x1,%eax
  401188:	ba f0 32 60 00       	mov    $0x6032f0,%edx
  40118d:	83 f9 01             	cmp    $0x1,%ecx
  401190:	7f cd                	jg     40115f <phase_6+0x6a>
  401192:	eb d6                	jmp    40116a <phase_6+0x75>
  401194:	48 8b 5c 24 20       	mov    0x20(%rsp),%rbx
  401199:	48 8d 44 24 20       	lea    0x20(%rsp),%rax
  40119e:	48 8d 74 24 48       	lea    0x48(%rsp),%rsi
  4011a3:	48 89 d9             	mov    %rbx,%rcx
  4011a6:	48 8b 50 08          	mov    0x8(%rax),%rdx
  4011aa:	48 89 51 08          	mov    %rdx,0x8(%rcx)
  4011ae:	48 83 c0 08          	add    $0x8,%rax
  4011b2:	48 89 d1             	mov    %rdx,%rcx
  4011b5:	48 39 f0             	cmp    %rsi,%rax
  4011b8:	75 ec                	jne    4011a6 <phase_6+0xb1>
  4011ba:	48 c7 42 08 00 00 00 	movq   $0x0,0x8(%rdx)
  4011c1:	00 
  4011c2:	bd 05 00 00 00       	mov    $0x5,%ebp
  4011c7:	48 8b 43 08          	mov    0x8(%rbx),%rax
  4011cb:	8b 00                	mov    (%rax),%eax
  4011cd:	39 03                	cmp    %eax,(%rbx)
  4011cf:	7d 05                	jge    4011d6 <phase_6+0xe1>
  4011d1:	e8 50 02 00 00       	callq  401426 <explode_bomb>
  4011d6:	48 8b 5b 08          	mov    0x8(%rbx),%rbx
  4011da:	83 ed 01             	sub    $0x1,%ebp
  4011dd:	75 e8                	jne    4011c7 <phase_6+0xd2>
  4011df:	48 8b 44 24 58       	mov    0x58(%rsp),%rax
  4011e4:	64 48 33 04 25 28 00 	xor    %fs:0x28,%rax
  4011eb:	00 00 
  4011ed:	74 05                	je     4011f4 <phase_6+0xff>
  4011ef:	e8 0c f9 ff ff       	callq  400b00 <__stack_chk_fail@plt>
  4011f4:	48 83 c4 68          	add    $0x68,%rsp
  4011f8:	5b                   	pop    %rbx
  4011f9:	5d                   	pop    %rbp
  4011fa:	41 5c                	pop    %r12
  4011fc:	41 5d                	pop    %r13
  4011fe:	c3                   	retq   

00000000004011ff <fun7>:
fun7():
  4011ff:	48 83 ec 08          	sub    $0x8,%rsp
  401203:	48 85 ff             	test   %rdi,%rdi
  401206:	74 2b                	je     401233 <fun7+0x34>
  401208:	8b 17                	mov    (%rdi),%edx
  40120a:	39 f2                	cmp    %esi,%edx
  40120c:	7e 0d                	jle    40121b <fun7+0x1c>
  40120e:	48 8b 7f 08          	mov    0x8(%rdi),%rdi
  401212:	e8 e8 ff ff ff       	callq  4011ff <fun7>
  401217:	01 c0                	add    %eax,%eax
  401219:	eb 1d                	jmp    401238 <fun7+0x39>
  40121b:	b8 00 00 00 00       	mov    $0x0,%eax
  401220:	39 f2                	cmp    %esi,%edx
  401222:	74 14                	je     401238 <fun7+0x39>
  401224:	48 8b 7f 10          	mov    0x10(%rdi),%rdi
  401228:	e8 d2 ff ff ff       	callq  4011ff <fun7>
  40122d:	8d 44 00 01          	lea    0x1(%rax,%rax,1),%eax
  401231:	eb 05                	jmp    401238 <fun7+0x39>
  401233:	b8 ff ff ff ff       	mov    $0xffffffff,%eax
  401238:	48 83 c4 08          	add    $0x8,%rsp
  40123c:	c3                   	retq   

000000000040123d <secret_phase>:
secret_phase():
  40123d:	53                   	push   %rbx
  40123e:	e8 44 02 00 00       	callq  401487 <read_line>
  401243:	ba 0a 00 00 00       	mov    $0xa,%edx
  401248:	be 00 00 00 00       	mov    $0x0,%esi
  40124d:	48 89 c7             	mov    %rax,%rdi
  401250:	e8 3b f9 ff ff       	callq  400b90 <strtol@plt>
  401255:	48 89 c3             	mov    %rax,%rbx
  401258:	8d 40 ff             	lea    -0x1(%rax),%eax
  40125b:	3d e8 03 00 00       	cmp    $0x3e8,%eax
  401260:	76 05                	jbe    401267 <secret_phase+0x2a>
  401262:	e8 bf 01 00 00       	callq  401426 <explode_bomb>
  401267:	89 de                	mov    %ebx,%esi
  401269:	bf 10 31 60 00       	mov    $0x603110,%edi
  40126e:	e8 8c ff ff ff       	callq  4011ff <fun7>
  401273:	83 f8 07             	cmp    $0x7,%eax
  401276:	74 05                	je     40127d <secret_phase+0x40>
  401278:	e8 a9 01 00 00       	callq  401426 <explode_bomb>
  40127d:	bf e8 23 40 00       	mov    $0x4023e8,%edi
  401282:	e8 59 f8 ff ff       	callq  400ae0 <puts@plt>
  401287:	e8 21 03 00 00       	callq  4015ad <phase_defused>
  40128c:	5b                   	pop    %rbx
  40128d:	c3                   	retq   

000000000040128e <sig_handler>:
sig_handler():
  40128e:	48 83 ec 08          	sub    $0x8,%rsp
  401292:	bf a0 24 40 00       	mov    $0x4024a0,%edi
  401297:	e8 44 f8 ff ff       	callq  400ae0 <puts@plt>
  40129c:	bf 03 00 00 00       	mov    $0x3,%edi
  4012a1:	e8 6a f9 ff ff       	callq  400c10 <sleep@plt>
  4012a6:	be 62 25 40 00       	mov    $0x402562,%esi
  4012ab:	bf 01 00 00 00       	mov    $0x1,%edi
  4012b0:	b8 00 00 00 00       	mov    $0x0,%eax
  4012b5:	e8 06 f9 ff ff       	callq  400bc0 <__printf_chk@plt>
  4012ba:	48 8b 3d 9f 24 20 00 	mov    0x20249f(%rip),%rdi        # 603760 <stdout@@GLIBC_2.2.5>
  4012c1:	e8 da f8 ff ff       	callq  400ba0 <fflush@plt>
  4012c6:	bf 01 00 00 00       	mov    $0x1,%edi
  4012cb:	e8 40 f9 ff ff       	callq  400c10 <sleep@plt>
  4012d0:	bf 6a 25 40 00       	mov    $0x40256a,%edi
  4012d5:	e8 06 f8 ff ff       	callq  400ae0 <puts@plt>
  4012da:	bf 10 00 00 00       	mov    $0x10,%edi
  4012df:	e8 fc f8 ff ff       	callq  400be0 <exit@plt>

00000000004012e4 <invalid_phase>:
invalid_phase():
  4012e4:	48 83 ec 08          	sub    $0x8,%rsp
  4012e8:	48 89 fa             	mov    %rdi,%rdx
  4012eb:	be 72 25 40 00       	mov    $0x402572,%esi
  4012f0:	bf 01 00 00 00       	mov    $0x1,%edi
  4012f5:	b8 00 00 00 00       	mov    $0x0,%eax
  4012fa:	e8 c1 f8 ff ff       	callq  400bc0 <__printf_chk@plt>
  4012ff:	bf 08 00 00 00       	mov    $0x8,%edi
  401304:	e8 d7 f8 ff ff       	callq  400be0 <exit@plt>

0000000000401309 <string_length>:
string_length():
  401309:	80 3f 00             	cmpb   $0x0,(%rdi)
  40130c:	74 13                	je     401321 <string_length+0x18>
  40130e:	b8 00 00 00 00       	mov    $0x0,%eax
  401313:	48 83 c7 01          	add    $0x1,%rdi
  401317:	83 c0 01             	add    $0x1,%eax
  40131a:	80 3f 00             	cmpb   $0x0,(%rdi)
  40131d:	75 f4                	jne    401313 <string_length+0xa>
  40131f:	f3 c3                	repz retq 
  401321:	b8 00 00 00 00       	mov    $0x0,%eax
  401326:	c3                   	retq   

0000000000401327 <strings_not_equal>:
strings_not_equal():
  401327:	41 54                	push   %r12
  401329:	55                   	push   %rbp
  40132a:	53                   	push   %rbx
  40132b:	48 89 fb             	mov    %rdi,%rbx
  40132e:	48 89 f5             	mov    %rsi,%rbp
  401331:	e8 d3 ff ff ff       	callq  401309 <string_length>
  401336:	41 89 c4             	mov    %eax,%r12d
  401339:	48 89 ef             	mov    %rbp,%rdi
  40133c:	e8 c8 ff ff ff       	callq  401309 <string_length>
  401341:	ba 01 00 00 00       	mov    $0x1,%edx
  401346:	41 39 c4             	cmp    %eax,%r12d
  401349:	75 3c                	jne    401387 <strings_not_equal+0x60>
  40134b:	0f b6 03             	movzbl (%rbx),%eax
  40134e:	84 c0                	test   %al,%al
  401350:	74 22                	je     401374 <strings_not_equal+0x4d>
  401352:	3a 45 00             	cmp    0x0(%rbp),%al
  401355:	74 07                	je     40135e <strings_not_equal+0x37>
  401357:	eb 22                	jmp    40137b <strings_not_equal+0x54>
  401359:	3a 45 00             	cmp    0x0(%rbp),%al
  40135c:	75 24                	jne    401382 <strings_not_equal+0x5b>
  40135e:	48 83 c3 01          	add    $0x1,%rbx
  401362:	48 83 c5 01          	add    $0x1,%rbp
  401366:	0f b6 03             	movzbl (%rbx),%eax
  401369:	84 c0                	test   %al,%al
  40136b:	75 ec                	jne    401359 <strings_not_equal+0x32>
  40136d:	ba 00 00 00 00       	mov    $0x0,%edx
  401372:	eb 13                	jmp    401387 <strings_not_equal+0x60>
  401374:	ba 00 00 00 00       	mov    $0x0,%edx
  401379:	eb 0c                	jmp    401387 <strings_not_equal+0x60>
  40137b:	ba 01 00 00 00       	mov    $0x1,%edx
  401380:	eb 05                	jmp    401387 <strings_not_equal+0x60>
  401382:	ba 01 00 00 00       	mov    $0x1,%edx
  401387:	89 d0                	mov    %edx,%eax
  401389:	5b                   	pop    %rbx
  40138a:	5d                   	pop    %rbp
  40138b:	41 5c                	pop    %r12
  40138d:	c3                   	retq   

000000000040138e <initialize_bomb>:
initialize_bomb():
  40138e:	48 83 ec 08          	sub    $0x8,%rsp
  401392:	be 8e 12 40 00       	mov    $0x40128e,%esi
  401397:	bf 02 00 00 00       	mov    $0x2,%edi
  40139c:	e8 bf f7 ff ff       	callq  400b60 <signal@plt>
  4013a1:	48 83 c4 08          	add    $0x8,%rsp
  4013a5:	c3                   	retq   

00000000004013a6 <initialize_bomb_solve>:
initialize_bomb_solve():
  4013a6:	f3 c3                	repz retq 

00000000004013a8 <blank_line>:
blank_line():
  4013a8:	55                   	push   %rbp
  4013a9:	53                   	push   %rbx
  4013aa:	48 83 ec 08          	sub    $0x8,%rsp
  4013ae:	48 89 fd             	mov    %rdi,%rbp
  4013b1:	eb 17                	jmp    4013ca <blank_line+0x22>
  4013b3:	e8 68 f8 ff ff       	callq  400c20 <__ctype_b_loc@plt>
  4013b8:	48 83 c5 01          	add    $0x1,%rbp
  4013bc:	48 0f be db          	movsbq %bl,%rbx
  4013c0:	48 8b 00             	mov    (%rax),%rax
  4013c3:	f6 44 58 01 20       	testb  $0x20,0x1(%rax,%rbx,2)
  4013c8:	74 0f                	je     4013d9 <blank_line+0x31>
  4013ca:	0f b6 5d 00          	movzbl 0x0(%rbp),%ebx
  4013ce:	84 db                	test   %bl,%bl
  4013d0:	75 e1                	jne    4013b3 <blank_line+0xb>
  4013d2:	b8 01 00 00 00       	mov    $0x1,%eax
  4013d7:	eb 05                	jmp    4013de <blank_line+0x36>
  4013d9:	b8 00 00 00 00       	mov    $0x0,%eax
  4013de:	48 83 c4 08          	add    $0x8,%rsp
  4013e2:	5b                   	pop    %rbx
  4013e3:	5d                   	pop    %rbp
  4013e4:	c3                   	retq   

00000000004013e5 <skip>:
skip():
  4013e5:	53                   	push   %rbx
  4013e6:	48 63 05 9f 23 20 00 	movslq 0x20239f(%rip),%rax        # 60378c <num_input_strings>
  4013ed:	48 8d 3c 80          	lea    (%rax,%rax,4),%rdi
  4013f1:	48 c1 e7 04          	shl    $0x4,%rdi
  4013f5:	48 81 c7 a0 37 60 00 	add    $0x6037a0,%rdi
  4013fc:	48 8b 15 8d 23 20 00 	mov    0x20238d(%rip),%rdx        # 603790 <infile>
  401403:	be 50 00 00 00       	mov    $0x50,%esi
  401408:	e8 43 f7 ff ff       	callq  400b50 <fgets@plt>
  40140d:	48 89 c3             	mov    %rax,%rbx
  401410:	48 85 c0             	test   %rax,%rax
  401413:	74 0c                	je     401421 <skip+0x3c>
  401415:	48 89 c7             	mov    %rax,%rdi
  401418:	e8 8b ff ff ff       	callq  4013a8 <blank_line>
  40141d:	85 c0                	test   %eax,%eax
  40141f:	75 c5                	jne    4013e6 <skip+0x1>
  401421:	48 89 d8             	mov    %rbx,%rax
  401424:	5b                   	pop    %rbx
  401425:	c3                   	retq   

0000000000401426 <explode_bomb>:
explode_bomb():
  401426:	48 83 ec 08          	sub    $0x8,%rsp
  40142a:	bf 83 25 40 00       	mov    $0x402583,%edi
  40142f:	e8 ac f6 ff ff       	callq  400ae0 <puts@plt>
  401434:	bf 8c 25 40 00       	mov    $0x40258c,%edi
  401439:	e8 a2 f6 ff ff       	callq  400ae0 <puts@plt>
  40143e:	bf 08 00 00 00       	mov    $0x8,%edi
  401443:	e8 98 f7 ff ff       	callq  400be0 <exit@plt>

0000000000401448 <read_six_numbers>:
read_six_numbers():
  401448:	48 83 ec 08          	sub    $0x8,%rsp
  40144c:	48 89 f2             	mov    %rsi,%rdx
  40144f:	48 8d 4e 04          	lea    0x4(%rsi),%rcx
  401453:	48 8d 46 14          	lea    0x14(%rsi),%rax
  401457:	50                   	push   %rax
  401458:	48 8d 46 10          	lea    0x10(%rsi),%rax
  40145c:	50                   	push   %rax
  40145d:	4c 8d 4e 0c          	lea    0xc(%rsi),%r9
  401461:	4c 8d 46 08          	lea    0x8(%rsi),%r8
  401465:	be a3 25 40 00       	mov    $0x4025a3,%esi
  40146a:	b8 00 00 00 00       	mov    $0x0,%eax
  40146f:	e8 3c f7 ff ff       	callq  400bb0 <__isoc99_sscanf@plt>
  401474:	48 83 c4 10          	add    $0x10,%rsp
  401478:	83 f8 05             	cmp    $0x5,%eax
  40147b:	7f 05                	jg     401482 <read_six_numbers+0x3a>
  40147d:	e8 a4 ff ff ff       	callq  401426 <explode_bomb>
  401482:	48 83 c4 08          	add    $0x8,%rsp
  401486:	c3                   	retq   

0000000000401487 <read_line>:
read_line():
  401487:	48 83 ec 08          	sub    $0x8,%rsp
  40148b:	b8 00 00 00 00       	mov    $0x0,%eax
  401490:	e8 50 ff ff ff       	callq  4013e5 <skip>
  401495:	48 85 c0             	test   %rax,%rax
  401498:	75 6e                	jne    401508 <read_line+0x81>
  40149a:	48 8b 05 cf 22 20 00 	mov    0x2022cf(%rip),%rax        # 603770 <stdin@@GLIBC_2.2.5>
  4014a1:	48 39 05 e8 22 20 00 	cmp    %rax,0x2022e8(%rip)        # 603790 <infile>
  4014a8:	75 14                	jne    4014be <read_line+0x37>
  4014aa:	bf b5 25 40 00       	mov    $0x4025b5,%edi
  4014af:	e8 2c f6 ff ff       	callq  400ae0 <puts@plt>
  4014b4:	bf 08 00 00 00       	mov    $0x8,%edi
  4014b9:	e8 22 f7 ff ff       	callq  400be0 <exit@plt>
  4014be:	bf d3 25 40 00       	mov    $0x4025d3,%edi
  4014c3:	e8 e8 f5 ff ff       	callq  400ab0 <getenv@plt>
  4014c8:	48 85 c0             	test   %rax,%rax
  4014cb:	74 0a                	je     4014d7 <read_line+0x50>
  4014cd:	bf 00 00 00 00       	mov    $0x0,%edi
  4014d2:	e8 09 f7 ff ff       	callq  400be0 <exit@plt>
  4014d7:	48 8b 05 92 22 20 00 	mov    0x202292(%rip),%rax        # 603770 <stdin@@GLIBC_2.2.5>
  4014de:	48 89 05 ab 22 20 00 	mov    %rax,0x2022ab(%rip)        # 603790 <infile>
  4014e5:	b8 00 00 00 00       	mov    $0x0,%eax
  4014ea:	e8 f6 fe ff ff       	callq  4013e5 <skip>
  4014ef:	48 85 c0             	test   %rax,%rax
  4014f2:	75 14                	jne    401508 <read_line+0x81>
  4014f4:	bf b5 25 40 00       	mov    $0x4025b5,%edi
  4014f9:	e8 e2 f5 ff ff       	callq  400ae0 <puts@plt>
  4014fe:	bf 00 00 00 00       	mov    $0x0,%edi
  401503:	e8 d8 f6 ff ff       	callq  400be0 <exit@plt>
  401508:	8b 35 7e 22 20 00    	mov    0x20227e(%rip),%esi        # 60378c <num_input_strings>
  40150e:	48 63 c6             	movslq %esi,%rax
  401511:	48 8d 14 80          	lea    (%rax,%rax,4),%rdx
  401515:	48 c1 e2 04          	shl    $0x4,%rdx
  401519:	48 81 c2 a0 37 60 00 	add    $0x6037a0,%rdx
  401520:	b8 00 00 00 00       	mov    $0x0,%eax
  401525:	48 c7 c1 ff ff ff ff 	mov    $0xffffffffffffffff,%rcx
  40152c:	48 89 d7             	mov    %rdx,%rdi
  40152f:	f2 ae                	repnz scas %es:(%rdi),%al
  401531:	48 f7 d1             	not    %rcx
  401534:	48 83 e9 01          	sub    $0x1,%rcx
  401538:	83 f9 4e             	cmp    $0x4e,%ecx
  40153b:	7e 46                	jle    401583 <read_line+0xfc>
  40153d:	bf de 25 40 00       	mov    $0x4025de,%edi
  401542:	e8 99 f5 ff ff       	callq  400ae0 <puts@plt>
  401547:	8b 05 3f 22 20 00    	mov    0x20223f(%rip),%eax        # 60378c <num_input_strings>
  40154d:	8d 50 01             	lea    0x1(%rax),%edx
  401550:	89 15 36 22 20 00    	mov    %edx,0x202236(%rip)        # 60378c <num_input_strings>
  401556:	48 98                	cltq   
  401558:	48 6b c0 50          	imul   $0x50,%rax,%rax
  40155c:	48 bf 2a 2a 2a 74 72 	movabs $0x636e7572742a2a2a,%rdi
  401563:	75 6e 63 
  401566:	48 89 b8 a0 37 60 00 	mov    %rdi,0x6037a0(%rax)
  40156d:	48 bf 61 74 65 64 2a 	movabs $0x2a2a2a64657461,%rdi
  401574:	2a 2a 00 
  401577:	48 89 b8 a8 37 60 00 	mov    %rdi,0x6037a8(%rax)
  40157e:	e8 a3 fe ff ff       	callq  401426 <explode_bomb>
  401583:	83 e9 01             	sub    $0x1,%ecx
  401586:	48 63 c9             	movslq %ecx,%rcx
  401589:	48 63 c6             	movslq %esi,%rax
  40158c:	48 8d 04 80          	lea    (%rax,%rax,4),%rax
  401590:	48 c1 e0 04          	shl    $0x4,%rax
  401594:	c6 84 01 a0 37 60 00 	movb   $0x0,0x6037a0(%rcx,%rax,1)
  40159b:	00 
  40159c:	8d 46 01             	lea    0x1(%rsi),%eax
  40159f:	89 05 e7 21 20 00    	mov    %eax,0x2021e7(%rip)        # 60378c <num_input_strings>
  4015a5:	48 89 d0             	mov    %rdx,%rax
  4015a8:	48 83 c4 08          	add    $0x8,%rsp
  4015ac:	c3                   	retq   

00000000004015ad <phase_defused>:
phase_defused():
  4015ad:	48 83 ec 78          	sub    $0x78,%rsp
  4015b1:	64 48 8b 04 25 28 00 	mov    %fs:0x28,%rax
  4015b8:	00 00 
  4015ba:	48 89 44 24 68       	mov    %rax,0x68(%rsp)
  4015bf:	31 c0                	xor    %eax,%eax
  4015c1:	83 3d c4 21 20 00 06 	cmpl   $0x6,0x2021c4(%rip)        # 60378c <num_input_strings>
  4015c8:	75 5e                	jne    401628 <phase_defused+0x7b>
  4015ca:	4c 8d 44 24 10       	lea    0x10(%rsp),%r8
  4015cf:	48 8d 4c 24 0c       	lea    0xc(%rsp),%rcx
  4015d4:	48 8d 54 24 08       	lea    0x8(%rsp),%rdx
  4015d9:	be f9 25 40 00       	mov    $0x4025f9,%esi
  4015de:	bf 90 38 60 00       	mov    $0x603890,%edi
  4015e3:	e8 c8 f5 ff ff       	callq  400bb0 <__isoc99_sscanf@plt>
  4015e8:	83 f8 03             	cmp    $0x3,%eax
  4015eb:	75 31                	jne    40161e <phase_defused+0x71>
  4015ed:	be 02 26 40 00       	mov    $0x402602,%esi
  4015f2:	48 8d 7c 24 10       	lea    0x10(%rsp),%rdi
  4015f7:	e8 2b fd ff ff       	callq  401327 <strings_not_equal>
  4015fc:	85 c0                	test   %eax,%eax
  4015fe:	75 1e                	jne    40161e <phase_defused+0x71>
  401600:	bf d8 24 40 00       	mov    $0x4024d8,%edi
  401605:	e8 d6 f4 ff ff       	callq  400ae0 <puts@plt>
  40160a:	bf 00 25 40 00       	mov    $0x402500,%edi
  40160f:	e8 cc f4 ff ff       	callq  400ae0 <puts@plt>
  401614:	b8 00 00 00 00       	mov    $0x0,%eax
  401619:	e8 1f fc ff ff       	callq  40123d <secret_phase>
  40161e:	bf 38 25 40 00       	mov    $0x402538,%edi
  401623:	e8 b8 f4 ff ff       	callq  400ae0 <puts@plt>
  401628:	48 8b 44 24 68       	mov    0x68(%rsp),%rax
  40162d:	64 48 33 04 25 28 00 	xor    %fs:0x28,%rax
  401634:	00 00 
  401636:	74 05                	je     40163d <phase_defused+0x90>
  401638:	e8 c3 f4 ff ff       	callq  400b00 <__stack_chk_fail@plt>
  40163d:	48 83 c4 78          	add    $0x78,%rsp
  401641:	c3                   	retq   

0000000000401642 <sigalrm_handler>:
sigalrm_handler():
  401642:	48 83 ec 08          	sub    $0x8,%rsp
  401646:	b9 00 00 00 00       	mov    $0x0,%ecx
  40164b:	ba 58 26 40 00       	mov    $0x402658,%edx
  401650:	be 01 00 00 00       	mov    $0x1,%esi
  401655:	48 8b 3d 24 21 20 00 	mov    0x202124(%rip),%rdi        # 603780 <stderr@@GLIBC_2.2.5>
  40165c:	b8 00 00 00 00       	mov    $0x0,%eax
  401661:	e8 9a f5 ff ff       	callq  400c00 <__fprintf_chk@plt>
  401666:	bf 01 00 00 00       	mov    $0x1,%edi
  40166b:	e8 70 f5 ff ff       	callq  400be0 <exit@plt>

0000000000401670 <rio_readlineb>:
rio_readlineb():
  401670:	41 56                	push   %r14
  401672:	41 55                	push   %r13
  401674:	41 54                	push   %r12
  401676:	55                   	push   %rbp
  401677:	53                   	push   %rbx
  401678:	48 83 ec 10          	sub    $0x10,%rsp
  40167c:	48 89 fb             	mov    %rdi,%rbx
  40167f:	49 89 f5             	mov    %rsi,%r13
  401682:	49 89 d6             	mov    %rdx,%r14
  401685:	64 48 8b 04 25 28 00 	mov    %fs:0x28,%rax
  40168c:	00 00 
  40168e:	48 89 44 24 08       	mov    %rax,0x8(%rsp)
  401693:	31 c0                	xor    %eax,%eax
  401695:	41 bc 01 00 00 00    	mov    $0x1,%r12d
  40169b:	48 8d 6f 10          	lea    0x10(%rdi),%rbp
  40169f:	48 83 fa 01          	cmp    $0x1,%rdx
  4016a3:	77 2c                	ja     4016d1 <rio_readlineb+0x61>
  4016a5:	eb 6d                	jmp    401714 <rio_readlineb+0xa4>
  4016a7:	ba 00 20 00 00       	mov    $0x2000,%edx
  4016ac:	48 89 ee             	mov    %rbp,%rsi
  4016af:	8b 3b                	mov    (%rbx),%edi
  4016b1:	e8 7a f4 ff ff       	callq  400b30 <read@plt>
  4016b6:	89 43 04             	mov    %eax,0x4(%rbx)
  4016b9:	85 c0                	test   %eax,%eax
  4016bb:	79 0c                	jns    4016c9 <rio_readlineb+0x59>
  4016bd:	e8 fe f3 ff ff       	callq  400ac0 <__errno_location@plt>
  4016c2:	83 38 04             	cmpl   $0x4,(%rax)
  4016c5:	74 0a                	je     4016d1 <rio_readlineb+0x61>
  4016c7:	eb 6c                	jmp    401735 <rio_readlineb+0xc5>
  4016c9:	85 c0                	test   %eax,%eax
  4016cb:	74 71                	je     40173e <rio_readlineb+0xce>
  4016cd:	48 89 6b 08          	mov    %rbp,0x8(%rbx)
  4016d1:	8b 43 04             	mov    0x4(%rbx),%eax
  4016d4:	85 c0                	test   %eax,%eax
  4016d6:	7e cf                	jle    4016a7 <rio_readlineb+0x37>
  4016d8:	48 8b 53 08          	mov    0x8(%rbx),%rdx
  4016dc:	0f b6 0a             	movzbl (%rdx),%ecx
  4016df:	88 4c 24 07          	mov    %cl,0x7(%rsp)
  4016e3:	48 83 c2 01          	add    $0x1,%rdx
  4016e7:	48 89 53 08          	mov    %rdx,0x8(%rbx)
  4016eb:	83 e8 01             	sub    $0x1,%eax
  4016ee:	89 43 04             	mov    %eax,0x4(%rbx)
  4016f1:	49 83 c5 01          	add    $0x1,%r13
  4016f5:	41 88 4d ff          	mov    %cl,-0x1(%r13)
  4016f9:	80 f9 0a             	cmp    $0xa,%cl
  4016fc:	75 0a                	jne    401708 <rio_readlineb+0x98>
  4016fe:	eb 14                	jmp    401714 <rio_readlineb+0xa4>
  401700:	41 83 fc 01          	cmp    $0x1,%r12d
  401704:	75 0e                	jne    401714 <rio_readlineb+0xa4>
  401706:	eb 16                	jmp    40171e <rio_readlineb+0xae>
  401708:	41 83 c4 01          	add    $0x1,%r12d
  40170c:	49 63 c4             	movslq %r12d,%rax
  40170f:	4c 39 f0             	cmp    %r14,%rax
  401712:	72 bd                	jb     4016d1 <rio_readlineb+0x61>
  401714:	41 c6 45 00 00       	movb   $0x0,0x0(%r13)
  401719:	49 63 c4             	movslq %r12d,%rax
  40171c:	eb 05                	jmp    401723 <rio_readlineb+0xb3>
  40171e:	b8 00 00 00 00       	mov    $0x0,%eax
  401723:	48 8b 4c 24 08       	mov    0x8(%rsp),%rcx
  401728:	64 48 33 0c 25 28 00 	xor    %fs:0x28,%rcx
  40172f:	00 00 
  401731:	74 22                	je     401755 <rio_readlineb+0xe5>
  401733:	eb 1b                	jmp    401750 <rio_readlineb+0xe0>
  401735:	48 c7 c0 ff ff ff ff 	mov    $0xffffffffffffffff,%rax
  40173c:	eb 05                	jmp    401743 <rio_readlineb+0xd3>
  40173e:	b8 00 00 00 00       	mov    $0x0,%eax
  401743:	85 c0                	test   %eax,%eax
  401745:	74 b9                	je     401700 <rio_readlineb+0x90>
  401747:	48 c7 c0 ff ff ff ff 	mov    $0xffffffffffffffff,%rax
  40174e:	eb d3                	jmp    401723 <rio_readlineb+0xb3>
  401750:	e8 ab f3 ff ff       	callq  400b00 <__stack_chk_fail@plt>
  401755:	48 83 c4 10          	add    $0x10,%rsp
  401759:	5b                   	pop    %rbx
  40175a:	5d                   	pop    %rbp
  40175b:	41 5c                	pop    %r12
  40175d:	41 5d                	pop    %r13
  40175f:	41 5e                	pop    %r14
  401761:	c3                   	retq   

0000000000401762 <submitr>:
submitr():
  401762:	41 57                	push   %r15
  401764:	41 56                	push   %r14
  401766:	41 55                	push   %r13
  401768:	41 54                	push   %r12
  40176a:	55                   	push   %rbp
  40176b:	53                   	push   %rbx
  40176c:	48 81 ec 68 a0 00 00 	sub    $0xa068,%rsp
  401773:	48 89 fd             	mov    %rdi,%rbp
  401776:	41 89 f5             	mov    %esi,%r13d
  401779:	48 89 54 24 08       	mov    %rdx,0x8(%rsp)
  40177e:	48 89 4c 24 10       	mov    %rcx,0x10(%rsp)
  401783:	4c 89 44 24 18       	mov    %r8,0x18(%rsp)
  401788:	4c 89 cb             	mov    %r9,%rbx
  40178b:	4c 8b bc 24 a0 a0 00 	mov    0xa0a0(%rsp),%r15
  401792:	00 
  401793:	64 48 8b 04 25 28 00 	mov    %fs:0x28,%rax
  40179a:	00 00 
  40179c:	48 89 84 24 58 a0 00 	mov    %rax,0xa058(%rsp)
  4017a3:	00 
  4017a4:	31 c0                	xor    %eax,%eax
  4017a6:	c7 44 24 2c 00 00 00 	movl   $0x0,0x2c(%rsp)
  4017ad:	00 
  4017ae:	ba 00 00 00 00       	mov    $0x0,%edx
  4017b3:	be 01 00 00 00       	mov    $0x1,%esi
  4017b8:	bf 02 00 00 00       	mov    $0x2,%edi
  4017bd:	e8 7e f4 ff ff       	callq  400c40 <socket@plt>
  4017c2:	85 c0                	test   %eax,%eax
  4017c4:	79 50                	jns    401816 <submitr+0xb4>
  4017c6:	48 b8 45 72 72 6f 72 	movabs $0x43203a726f727245,%rax
  4017cd:	3a 20 43 
  4017d0:	49 89 07             	mov    %rax,(%r15)
  4017d3:	48 b8 6c 69 65 6e 74 	movabs $0x6e7520746e65696c,%rax
  4017da:	20 75 6e 
  4017dd:	49 89 47 08          	mov    %rax,0x8(%r15)
  4017e1:	48 b8 61 62 6c 65 20 	movabs $0x206f7420656c6261,%rax
  4017e8:	74 6f 20 
  4017eb:	49 89 47 10          	mov    %rax,0x10(%r15)
  4017ef:	48 b8 63 72 65 61 74 	movabs $0x7320657461657263,%rax
  4017f6:	65 20 73 
  4017f9:	49 89 47 18          	mov    %rax,0x18(%r15)
  4017fd:	41 c7 47 20 6f 63 6b 	movl   $0x656b636f,0x20(%r15)
  401804:	65 
  401805:	66 41 c7 47 24 74 00 	movw   $0x74,0x24(%r15)
  40180c:	b8 ff ff ff ff       	mov    $0xffffffff,%eax
  401811:	e9 15 06 00 00       	jmpq   401e2b <submitr+0x6c9>
  401816:	41 89 c4             	mov    %eax,%r12d
  401819:	48 89 ef             	mov    %rbp,%rdi
  40181c:	e8 4f f3 ff ff       	callq  400b70 <gethostbyname@plt>
  401821:	48 85 c0             	test   %rax,%rax
  401824:	75 6b                	jne    401891 <submitr+0x12f>
  401826:	48 b8 45 72 72 6f 72 	movabs $0x44203a726f727245,%rax
  40182d:	3a 20 44 
  401830:	49 89 07             	mov    %rax,(%r15)
  401833:	48 b8 4e 53 20 69 73 	movabs $0x6e7520736920534e,%rax
  40183a:	20 75 6e 
  40183d:	49 89 47 08          	mov    %rax,0x8(%r15)
  401841:	48 b8 61 62 6c 65 20 	movabs $0x206f7420656c6261,%rax
  401848:	74 6f 20 
  40184b:	49 89 47 10          	mov    %rax,0x10(%r15)
  40184f:	48 b8 72 65 73 6f 6c 	movabs $0x2065766c6f736572,%rax
  401856:	76 65 20 
  401859:	49 89 47 18          	mov    %rax,0x18(%r15)
  40185d:	48 b8 73 65 72 76 65 	movabs $0x6120726576726573,%rax
  401864:	72 20 61 
  401867:	49 89 47 20          	mov    %rax,0x20(%r15)
  40186b:	41 c7 47 28 64 64 72 	movl   $0x65726464,0x28(%r15)
  401872:	65 
  401873:	66 41 c7 47 2c 73 73 	movw   $0x7373,0x2c(%r15)
  40187a:	41 c6 47 2e 00       	movb   $0x0,0x2e(%r15)
  40187f:	44 89 e7             	mov    %r12d,%edi
  401882:	e8 99 f2 ff ff       	callq  400b20 <close@plt>
  401887:	b8 ff ff ff ff       	mov    $0xffffffff,%eax
  40188c:	e9 9a 05 00 00       	jmpq   401e2b <submitr+0x6c9>
  401891:	48 c7 44 24 30 00 00 	movq   $0x0,0x30(%rsp)
  401898:	00 00 
  40189a:	48 c7 44 24 38 00 00 	movq   $0x0,0x38(%rsp)
  4018a1:	00 00 
  4018a3:	66 c7 44 24 30 02 00 	movw   $0x2,0x30(%rsp)
  4018aa:	48 63 50 14          	movslq 0x14(%rax),%rdx
  4018ae:	48 8b 40 18          	mov    0x18(%rax),%rax
  4018b2:	48 8d 7c 24 34       	lea    0x34(%rsp),%rdi
  4018b7:	b9 0c 00 00 00       	mov    $0xc,%ecx
  4018bc:	48 8b 30             	mov    (%rax),%rsi
  4018bf:	e8 bc f2 ff ff       	callq  400b80 <__memmove_chk@plt>
  4018c4:	66 41 c1 cd 08       	ror    $0x8,%r13w
  4018c9:	66 44 89 6c 24 32    	mov    %r13w,0x32(%rsp)
  4018cf:	ba 10 00 00 00       	mov    $0x10,%edx
  4018d4:	48 8d 74 24 30       	lea    0x30(%rsp),%rsi
  4018d9:	44 89 e7             	mov    %r12d,%edi
  4018dc:	e8 0f f3 ff ff       	callq  400bf0 <connect@plt>
  4018e1:	85 c0                	test   %eax,%eax
  4018e3:	79 5d                	jns    401942 <submitr+0x1e0>
  4018e5:	48 b8 45 72 72 6f 72 	movabs $0x55203a726f727245,%rax
  4018ec:	3a 20 55 
  4018ef:	49 89 07             	mov    %rax,(%r15)
  4018f2:	48 b8 6e 61 62 6c 65 	movabs $0x6f7420656c62616e,%rax
  4018f9:	20 74 6f 
  4018fc:	49 89 47 08          	mov    %rax,0x8(%r15)
  401900:	48 b8 20 63 6f 6e 6e 	movabs $0x7463656e6e6f6320,%rax
  401907:	65 63 74 
  40190a:	49 89 47 10          	mov    %rax,0x10(%r15)
  40190e:	48 b8 20 74 6f 20 74 	movabs $0x20656874206f7420,%rax
  401915:	68 65 20 
  401918:	49 89 47 18          	mov    %rax,0x18(%r15)
  40191c:	41 c7 47 20 73 65 72 	movl   $0x76726573,0x20(%r15)
  401923:	76 
  401924:	66 41 c7 47 24 65 72 	movw   $0x7265,0x24(%r15)
  40192b:	41 c6 47 26 00       	movb   $0x0,0x26(%r15)
  401930:	44 89 e7             	mov    %r12d,%edi
  401933:	e8 e8 f1 ff ff       	callq  400b20 <close@plt>
  401938:	b8 ff ff ff ff       	mov    $0xffffffff,%eax
  40193d:	e9 e9 04 00 00       	jmpq   401e2b <submitr+0x6c9>
  401942:	49 c7 c1 ff ff ff ff 	mov    $0xffffffffffffffff,%r9
  401949:	b8 00 00 00 00       	mov    $0x0,%eax
  40194e:	4c 89 c9             	mov    %r9,%rcx
  401951:	48 89 df             	mov    %rbx,%rdi
  401954:	f2 ae                	repnz scas %es:(%rdi),%al
  401956:	48 f7 d1             	not    %rcx
  401959:	48 89 ce             	mov    %rcx,%rsi
  40195c:	4c 89 c9             	mov    %r9,%rcx
  40195f:	48 8b 7c 24 08       	mov    0x8(%rsp),%rdi
  401964:	f2 ae                	repnz scas %es:(%rdi),%al
  401966:	49 89 c8             	mov    %rcx,%r8
  401969:	4c 89 c9             	mov    %r9,%rcx
  40196c:	48 8b 7c 24 10       	mov    0x10(%rsp),%rdi
  401971:	f2 ae                	repnz scas %es:(%rdi),%al
  401973:	48 f7 d1             	not    %rcx
  401976:	48 89 ca             	mov    %rcx,%rdx
  401979:	4c 89 c9             	mov    %r9,%rcx
  40197c:	48 8b 7c 24 18       	mov    0x18(%rsp),%rdi
  401981:	f2 ae                	repnz scas %es:(%rdi),%al
  401983:	4c 29 c2             	sub    %r8,%rdx
  401986:	48 29 ca             	sub    %rcx,%rdx
  401989:	48 8d 44 76 fd       	lea    -0x3(%rsi,%rsi,2),%rax
  40198e:	48 8d 44 02 7b       	lea    0x7b(%rdx,%rax,1),%rax
  401993:	48 3d 00 20 00 00    	cmp    $0x2000,%rax
  401999:	76 73                	jbe    401a0e <submitr+0x2ac>
  40199b:	48 b8 45 72 72 6f 72 	movabs $0x52203a726f727245,%rax
  4019a2:	3a 20 52 
  4019a5:	49 89 07             	mov    %rax,(%r15)
  4019a8:	48 b8 65 73 75 6c 74 	movabs $0x747320746c757365,%rax
  4019af:	20 73 74 
  4019b2:	49 89 47 08          	mov    %rax,0x8(%r15)
  4019b6:	48 b8 72 69 6e 67 20 	movabs $0x6f6f7420676e6972,%rax
  4019bd:	74 6f 6f 
  4019c0:	49 89 47 10          	mov    %rax,0x10(%r15)
  4019c4:	48 b8 20 6c 61 72 67 	movabs $0x202e656772616c20,%rax
  4019cb:	65 2e 20 
  4019ce:	49 89 47 18          	mov    %rax,0x18(%r15)
  4019d2:	48 b8 49 6e 63 72 65 	movabs $0x6573616572636e49,%rax
  4019d9:	61 73 65 
  4019dc:	49 89 47 20          	mov    %rax,0x20(%r15)
  4019e0:	48 b8 20 53 55 42 4d 	movabs $0x5254494d42555320,%rax
  4019e7:	49 54 52 
  4019ea:	49 89 47 28          	mov    %rax,0x28(%r15)
  4019ee:	48 b8 5f 4d 41 58 42 	movabs $0x46554258414d5f,%rax
  4019f5:	55 46 00 
  4019f8:	49 89 47 30          	mov    %rax,0x30(%r15)
  4019fc:	44 89 e7             	mov    %r12d,%edi
  4019ff:	e8 1c f1 ff ff       	callq  400b20 <close@plt>
  401a04:	b8 ff ff ff ff       	mov    $0xffffffff,%eax
  401a09:	e9 1d 04 00 00       	jmpq   401e2b <submitr+0x6c9>
  401a0e:	48 8d 94 24 50 40 00 	lea    0x4050(%rsp),%rdx
  401a15:	00 
  401a16:	b9 00 04 00 00       	mov    $0x400,%ecx
  401a1b:	b8 00 00 00 00       	mov    $0x0,%eax
  401a20:	48 89 d7             	mov    %rdx,%rdi
  401a23:	f3 48 ab             	rep stos %rax,%es:(%rdi)
  401a26:	48 c7 c1 ff ff ff ff 	mov    $0xffffffffffffffff,%rcx
  401a2d:	48 89 df             	mov    %rbx,%rdi
  401a30:	f2 ae                	repnz scas %es:(%rdi),%al
  401a32:	48 89 c8             	mov    %rcx,%rax
  401a35:	48 f7 d0             	not    %rax
  401a38:	48 83 e8 01          	sub    $0x1,%rax
  401a3c:	85 c0                	test   %eax,%eax
  401a3e:	0f 84 90 04 00 00    	je     401ed4 <submitr+0x772>
  401a44:	8d 40 ff             	lea    -0x1(%rax),%eax
  401a47:	4c 8d 74 03 01       	lea    0x1(%rbx,%rax,1),%r14
  401a4c:	48 89 d5             	mov    %rdx,%rbp
  401a4f:	49 bd d9 ff 00 00 00 	movabs $0x2000000000ffd9,%r13
  401a56:	00 20 00 
  401a59:	44 0f b6 03          	movzbl (%rbx),%r8d
  401a5d:	41 8d 40 d6          	lea    -0x2a(%r8),%eax
  401a61:	3c 35                	cmp    $0x35,%al
  401a63:	77 06                	ja     401a6b <submitr+0x309>
  401a65:	49 0f a3 c5          	bt     %rax,%r13
  401a69:	72 0d                	jb     401a78 <submitr+0x316>
  401a6b:	44 89 c0             	mov    %r8d,%eax
  401a6e:	83 e0 df             	and    $0xffffffdf,%eax
  401a71:	83 e8 41             	sub    $0x41,%eax
  401a74:	3c 19                	cmp    $0x19,%al
  401a76:	77 0a                	ja     401a82 <submitr+0x320>
  401a78:	44 88 45 00          	mov    %r8b,0x0(%rbp)
  401a7c:	48 8d 6d 01          	lea    0x1(%rbp),%rbp
  401a80:	eb 6c                	jmp    401aee <submitr+0x38c>
  401a82:	41 80 f8 20          	cmp    $0x20,%r8b
  401a86:	75 0a                	jne    401a92 <submitr+0x330>
  401a88:	c6 45 00 2b          	movb   $0x2b,0x0(%rbp)
  401a8c:	48 8d 6d 01          	lea    0x1(%rbp),%rbp
  401a90:	eb 5c                	jmp    401aee <submitr+0x38c>
  401a92:	41 8d 40 e0          	lea    -0x20(%r8),%eax
  401a96:	3c 5f                	cmp    $0x5f,%al
  401a98:	76 0a                	jbe    401aa4 <submitr+0x342>
  401a9a:	41 80 f8 09          	cmp    $0x9,%r8b
  401a9e:	0f 85 a3 03 00 00    	jne    401e47 <submitr+0x6e5>
  401aa4:	45 0f b6 c0          	movzbl %r8b,%r8d
  401aa8:	b9 28 27 40 00       	mov    $0x402728,%ecx
  401aad:	ba 08 00 00 00       	mov    $0x8,%edx
  401ab2:	be 01 00 00 00       	mov    $0x1,%esi
  401ab7:	48 8d bc 24 50 80 00 	lea    0x8050(%rsp),%rdi
  401abe:	00 
  401abf:	b8 00 00 00 00       	mov    $0x0,%eax
  401ac4:	e8 67 f1 ff ff       	callq  400c30 <__sprintf_chk@plt>
  401ac9:	0f b6 84 24 50 80 00 	movzbl 0x8050(%rsp),%eax
  401ad0:	00 
  401ad1:	88 45 00             	mov    %al,0x0(%rbp)
  401ad4:	0f b6 84 24 51 80 00 	movzbl 0x8051(%rsp),%eax
  401adb:	00 
  401adc:	88 45 01             	mov    %al,0x1(%rbp)
  401adf:	0f b6 84 24 52 80 00 	movzbl 0x8052(%rsp),%eax
  401ae6:	00 
  401ae7:	88 45 02             	mov    %al,0x2(%rbp)
  401aea:	48 8d 6d 03          	lea    0x3(%rbp),%rbp
  401aee:	48 83 c3 01          	add    $0x1,%rbx
  401af2:	49 39 de             	cmp    %rbx,%r14
  401af5:	0f 85 5e ff ff ff    	jne    401a59 <submitr+0x2f7>
  401afb:	e9 d4 03 00 00       	jmpq   401ed4 <submitr+0x772>
  401b00:	48 89 da             	mov    %rbx,%rdx
  401b03:	48 89 ee             	mov    %rbp,%rsi
  401b06:	44 89 e7             	mov    %r12d,%edi
  401b09:	e8 e2 ef ff ff       	callq  400af0 <write@plt>
  401b0e:	48 85 c0             	test   %rax,%rax
  401b11:	7f 0f                	jg     401b22 <submitr+0x3c0>
  401b13:	e8 a8 ef ff ff       	callq  400ac0 <__errno_location@plt>
  401b18:	83 38 04             	cmpl   $0x4,(%rax)
  401b1b:	75 12                	jne    401b2f <submitr+0x3cd>
  401b1d:	b8 00 00 00 00       	mov    $0x0,%eax
  401b22:	48 01 c5             	add    %rax,%rbp
  401b25:	48 29 c3             	sub    %rax,%rbx
  401b28:	75 d6                	jne    401b00 <submitr+0x39e>
  401b2a:	4d 85 ed             	test   %r13,%r13
  401b2d:	79 5f                	jns    401b8e <submitr+0x42c>
  401b2f:	48 b8 45 72 72 6f 72 	movabs $0x43203a726f727245,%rax
  401b36:	3a 20 43 
  401b39:	49 89 07             	mov    %rax,(%r15)
  401b3c:	48 b8 6c 69 65 6e 74 	movabs $0x6e7520746e65696c,%rax
  401b43:	20 75 6e 
  401b46:	49 89 47 08          	mov    %rax,0x8(%r15)
  401b4a:	48 b8 61 62 6c 65 20 	movabs $0x206f7420656c6261,%rax
  401b51:	74 6f 20 
  401b54:	49 89 47 10          	mov    %rax,0x10(%r15)
  401b58:	48 b8 77 72 69 74 65 	movabs $0x6f74206574697277,%rax
  401b5f:	20 74 6f 
  401b62:	49 89 47 18          	mov    %rax,0x18(%r15)
  401b66:	48 b8 20 74 68 65 20 	movabs $0x7265732065687420,%rax
  401b6d:	73 65 72 
  401b70:	49 89 47 20          	mov    %rax,0x20(%r15)
  401b74:	41 c7 47 28 76 65 72 	movl   $0x726576,0x28(%r15)
  401b7b:	00 
  401b7c:	44 89 e7             	mov    %r12d,%edi
  401b7f:	e8 9c ef ff ff       	callq  400b20 <close@plt>
  401b84:	b8 ff ff ff ff       	mov    $0xffffffff,%eax
  401b89:	e9 9d 02 00 00       	jmpq   401e2b <submitr+0x6c9>
  401b8e:	44 89 64 24 40       	mov    %r12d,0x40(%rsp)
  401b93:	c7 44 24 44 00 00 00 	movl   $0x0,0x44(%rsp)
  401b9a:	00 
  401b9b:	48 8d 44 24 50       	lea    0x50(%rsp),%rax
  401ba0:	48 89 44 24 48       	mov    %rax,0x48(%rsp)
  401ba5:	ba 00 20 00 00       	mov    $0x2000,%edx
  401baa:	48 8d b4 24 50 20 00 	lea    0x2050(%rsp),%rsi
  401bb1:	00 
  401bb2:	48 8d 7c 24 40       	lea    0x40(%rsp),%rdi
  401bb7:	e8 b4 fa ff ff       	callq  401670 <rio_readlineb>
  401bbc:	48 85 c0             	test   %rax,%rax
  401bbf:	7f 74                	jg     401c35 <submitr+0x4d3>
  401bc1:	48 b8 45 72 72 6f 72 	movabs $0x43203a726f727245,%rax
  401bc8:	3a 20 43 
  401bcb:	49 89 07             	mov    %rax,(%r15)
  401bce:	48 b8 6c 69 65 6e 74 	movabs $0x6e7520746e65696c,%rax
  401bd5:	20 75 6e 
  401bd8:	49 89 47 08          	mov    %rax,0x8(%r15)
  401bdc:	48 b8 61 62 6c 65 20 	movabs $0x206f7420656c6261,%rax
  401be3:	74 6f 20 
  401be6:	49 89 47 10          	mov    %rax,0x10(%r15)
  401bea:	48 b8 72 65 61 64 20 	movabs $0x7269662064616572,%rax
  401bf1:	66 69 72 
  401bf4:	49 89 47 18          	mov    %rax,0x18(%r15)
  401bf8:	48 b8 73 74 20 68 65 	movabs $0x6564616568207473,%rax
  401bff:	61 64 65 
  401c02:	49 89 47 20          	mov    %rax,0x20(%r15)
  401c06:	48 b8 72 20 66 72 6f 	movabs $0x73206d6f72662072,%rax
  401c0d:	6d 20 73 
  401c10:	49 89 47 28          	mov    %rax,0x28(%r15)
  401c14:	41 c7 47 30 65 72 76 	movl   $0x65767265,0x30(%r15)
  401c1b:	65 
  401c1c:	66 41 c7 47 34 72 00 	movw   $0x72,0x34(%r15)
  401c23:	44 89 e7             	mov    %r12d,%edi
  401c26:	e8 f5 ee ff ff       	callq  400b20 <close@plt>
  401c2b:	b8 ff ff ff ff       	mov    $0xffffffff,%eax
  401c30:	e9 f6 01 00 00       	jmpq   401e2b <submitr+0x6c9>
  401c35:	4c 8d 84 24 50 80 00 	lea    0x8050(%rsp),%r8
  401c3c:	00 
  401c3d:	48 8d 4c 24 2c       	lea    0x2c(%rsp),%rcx
  401c42:	48 8d 94 24 50 60 00 	lea    0x6050(%rsp),%rdx
  401c49:	00 
  401c4a:	be 2f 27 40 00       	mov    $0x40272f,%esi
  401c4f:	48 8d bc 24 50 20 00 	lea    0x2050(%rsp),%rdi
  401c56:	00 
  401c57:	b8 00 00 00 00       	mov    $0x0,%eax
  401c5c:	e8 4f ef ff ff       	callq  400bb0 <__isoc99_sscanf@plt>
  401c61:	44 8b 44 24 2c       	mov    0x2c(%rsp),%r8d
  401c66:	41 81 f8 c8 00 00 00 	cmp    $0xc8,%r8d
  401c6d:	0f 84 be 00 00 00    	je     401d31 <submitr+0x5cf>
  401c73:	4c 8d 8c 24 50 80 00 	lea    0x8050(%rsp),%r9
  401c7a:	00 
  401c7b:	b9 80 26 40 00       	mov    $0x402680,%ecx
  401c80:	48 c7 c2 ff ff ff ff 	mov    $0xffffffffffffffff,%rdx
  401c87:	be 01 00 00 00       	mov    $0x1,%esi
  401c8c:	4c 89 ff             	mov    %r15,%rdi
  401c8f:	b8 00 00 00 00       	mov    $0x0,%eax
  401c94:	e8 97 ef ff ff       	callq  400c30 <__sprintf_chk@plt>
  401c99:	44 89 e7             	mov    %r12d,%edi
  401c9c:	e8 7f ee ff ff       	callq  400b20 <close@plt>
  401ca1:	b8 ff ff ff ff       	mov    $0xffffffff,%eax
  401ca6:	e9 80 01 00 00       	jmpq   401e2b <submitr+0x6c9>
  401cab:	ba 00 20 00 00       	mov    $0x2000,%edx
  401cb0:	48 8d b4 24 50 20 00 	lea    0x2050(%rsp),%rsi
  401cb7:	00 
  401cb8:	48 8d 7c 24 40       	lea    0x40(%rsp),%rdi
  401cbd:	e8 ae f9 ff ff       	callq  401670 <rio_readlineb>
  401cc2:	48 85 c0             	test   %rax,%rax
  401cc5:	7f 6a                	jg     401d31 <submitr+0x5cf>
  401cc7:	48 b8 45 72 72 6f 72 	movabs $0x43203a726f727245,%rax
  401cce:	3a 20 43 
  401cd1:	49 89 07             	mov    %rax,(%r15)
  401cd4:	48 b8 6c 69 65 6e 74 	movabs $0x6e7520746e65696c,%rax
  401cdb:	20 75 6e 
  401cde:	49 89 47 08          	mov    %rax,0x8(%r15)
  401ce2:	48 b8 61 62 6c 65 20 	movabs $0x206f7420656c6261,%rax
  401ce9:	74 6f 20 
  401cec:	49 89 47 10          	mov    %rax,0x10(%r15)
  401cf0:	48 b8 72 65 61 64 20 	movabs $0x6165682064616572,%rax
  401cf7:	68 65 61 
  401cfa:	49 89 47 18          	mov    %rax,0x18(%r15)
  401cfe:	48 b8 64 65 72 73 20 	movabs $0x6f72662073726564,%rax
  401d05:	66 72 6f 
  401d08:	49 89 47 20          	mov    %rax,0x20(%r15)
  401d0c:	48 b8 6d 20 73 65 72 	movabs $0x726576726573206d,%rax
  401d13:	76 65 72 
  401d16:	49 89 47 28          	mov    %rax,0x28(%r15)
  401d1a:	41 c6 47 30 00       	movb   $0x0,0x30(%r15)
  401d1f:	44 89 e7             	mov    %r12d,%edi
  401d22:	e8 f9 ed ff ff       	callq  400b20 <close@plt>
  401d27:	b8 ff ff ff ff       	mov    $0xffffffff,%eax
  401d2c:	e9 fa 00 00 00       	jmpq   401e2b <submitr+0x6c9>
  401d31:	80 bc 24 50 20 00 00 	cmpb   $0xd,0x2050(%rsp)
  401d38:	0d 
  401d39:	0f 85 6c ff ff ff    	jne    401cab <submitr+0x549>
  401d3f:	80 bc 24 51 20 00 00 	cmpb   $0xa,0x2051(%rsp)
  401d46:	0a 
  401d47:	0f 85 5e ff ff ff    	jne    401cab <submitr+0x549>
  401d4d:	80 bc 24 52 20 00 00 	cmpb   $0x0,0x2052(%rsp)
  401d54:	00 
  401d55:	0f 85 50 ff ff ff    	jne    401cab <submitr+0x549>
  401d5b:	ba 00 20 00 00       	mov    $0x2000,%edx
  401d60:	48 8d b4 24 50 20 00 	lea    0x2050(%rsp),%rsi
  401d67:	00 
  401d68:	48 8d 7c 24 40       	lea    0x40(%rsp),%rdi
  401d6d:	e8 fe f8 ff ff       	callq  401670 <rio_readlineb>
  401d72:	48 85 c0             	test   %rax,%rax
  401d75:	7f 70                	jg     401de7 <submitr+0x685>
  401d77:	48 b8 45 72 72 6f 72 	movabs $0x43203a726f727245,%rax
  401d7e:	3a 20 43 
  401d81:	49 89 07             	mov    %rax,(%r15)
  401d84:	48 b8 6c 69 65 6e 74 	movabs $0x6e7520746e65696c,%rax
  401d8b:	20 75 6e 
  401d8e:	49 89 47 08          	mov    %rax,0x8(%r15)
  401d92:	48 b8 61 62 6c 65 20 	movabs $0x206f7420656c6261,%rax
  401d99:	74 6f 20 
  401d9c:	49 89 47 10          	mov    %rax,0x10(%r15)
  401da0:	48 b8 72 65 61 64 20 	movabs $0x6174732064616572,%rax
  401da7:	73 74 61 
  401daa:	49 89 47 18          	mov    %rax,0x18(%r15)
  401dae:	48 b8 74 75 73 20 6d 	movabs $0x7373656d20737574,%rax
  401db5:	65 73 73 
  401db8:	49 89 47 20          	mov    %rax,0x20(%r15)
  401dbc:	48 b8 61 67 65 20 66 	movabs $0x6d6f726620656761,%rax
  401dc3:	72 6f 6d 
  401dc6:	49 89 47 28          	mov    %rax,0x28(%r15)
  401dca:	48 b8 20 73 65 72 76 	movabs $0x72657672657320,%rax
  401dd1:	65 72 00 
  401dd4:	49 89 47 30          	mov    %rax,0x30(%r15)
  401dd8:	44 89 e7             	mov    %r12d,%edi
  401ddb:	e8 40 ed ff ff       	callq  400b20 <close@plt>
  401de0:	b8 ff ff ff ff       	mov    $0xffffffff,%eax
  401de5:	eb 44                	jmp    401e2b <submitr+0x6c9>
  401de7:	48 8d b4 24 50 20 00 	lea    0x2050(%rsp),%rsi
  401dee:	00 
  401def:	4c 89 ff             	mov    %r15,%rdi
  401df2:	e8 d9 ec ff ff       	callq  400ad0 <strcpy@plt>
  401df7:	44 89 e7             	mov    %r12d,%edi
  401dfa:	e8 21 ed ff ff       	callq  400b20 <close@plt>
  401dff:	41 0f b6 17          	movzbl (%r15),%edx
  401e03:	b8 4f 00 00 00       	mov    $0x4f,%eax
  401e08:	29 d0                	sub    %edx,%eax
  401e0a:	75 15                	jne    401e21 <submitr+0x6bf>
  401e0c:	41 0f b6 57 01       	movzbl 0x1(%r15),%edx
  401e11:	b8 4b 00 00 00       	mov    $0x4b,%eax
  401e16:	29 d0                	sub    %edx,%eax
  401e18:	75 07                	jne    401e21 <submitr+0x6bf>
  401e1a:	41 0f b6 47 02       	movzbl 0x2(%r15),%eax
  401e1f:	f7 d8                	neg    %eax
  401e21:	85 c0                	test   %eax,%eax
  401e23:	0f 95 c0             	setne  %al
  401e26:	0f b6 c0             	movzbl %al,%eax
  401e29:	f7 d8                	neg    %eax
  401e2b:	48 8b 8c 24 58 a0 00 	mov    0xa058(%rsp),%rcx
  401e32:	00 
  401e33:	64 48 33 0c 25 28 00 	xor    %fs:0x28,%rcx
  401e3a:	00 00 
  401e3c:	0f 84 0a 01 00 00    	je     401f4c <submitr+0x7ea>
  401e42:	e9 00 01 00 00       	jmpq   401f47 <submitr+0x7e5>
  401e47:	48 b8 45 72 72 6f 72 	movabs $0x52203a726f727245,%rax
  401e4e:	3a 20 52 
  401e51:	49 89 07             	mov    %rax,(%r15)
  401e54:	48 b8 65 73 75 6c 74 	movabs $0x747320746c757365,%rax
  401e5b:	20 73 74 
  401e5e:	49 89 47 08          	mov    %rax,0x8(%r15)
  401e62:	48 b8 72 69 6e 67 20 	movabs $0x6e6f6320676e6972,%rax
  401e69:	63 6f 6e 
  401e6c:	49 89 47 10          	mov    %rax,0x10(%r15)
  401e70:	48 b8 74 61 69 6e 73 	movabs $0x6e6120736e696174,%rax
  401e77:	20 61 6e 
  401e7a:	49 89 47 18          	mov    %rax,0x18(%r15)
  401e7e:	48 b8 20 69 6c 6c 65 	movabs $0x6c6167656c6c6920,%rax
  401e85:	67 61 6c 
  401e88:	49 89 47 20          	mov    %rax,0x20(%r15)
  401e8c:	48 b8 20 6f 72 20 75 	movabs $0x72706e7520726f20,%rax
  401e93:	6e 70 72 
  401e96:	49 89 47 28          	mov    %rax,0x28(%r15)
  401e9a:	48 b8 69 6e 74 61 62 	movabs $0x20656c6261746e69,%rax
  401ea1:	6c 65 20 
  401ea4:	49 89 47 30          	mov    %rax,0x30(%r15)
  401ea8:	48 b8 63 68 61 72 61 	movabs $0x6574636172616863,%rax
  401eaf:	63 74 65 
  401eb2:	49 89 47 38          	mov    %rax,0x38(%r15)
  401eb6:	66 41 c7 47 40 72 2e 	movw   $0x2e72,0x40(%r15)
  401ebd:	41 c6 47 42 00       	movb   $0x0,0x42(%r15)
  401ec2:	44 89 e7             	mov    %r12d,%edi
  401ec5:	e8 56 ec ff ff       	callq  400b20 <close@plt>
  401eca:	b8 ff ff ff ff       	mov    $0xffffffff,%eax
  401ecf:	e9 57 ff ff ff       	jmpq   401e2b <submitr+0x6c9>
  401ed4:	48 8d 9c 24 50 20 00 	lea    0x2050(%rsp),%rbx
  401edb:	00 
  401edc:	48 8d 84 24 50 40 00 	lea    0x4050(%rsp),%rax
  401ee3:	00 
  401ee4:	50                   	push   %rax
  401ee5:	ff 74 24 20          	pushq  0x20(%rsp)
  401ee9:	4c 8b 4c 24 20       	mov    0x20(%rsp),%r9
  401eee:	4c 8b 44 24 18       	mov    0x18(%rsp),%r8
  401ef3:	b9 b0 26 40 00       	mov    $0x4026b0,%ecx
  401ef8:	ba 00 20 00 00       	mov    $0x2000,%edx
  401efd:	be 01 00 00 00       	mov    $0x1,%esi
  401f02:	48 89 df             	mov    %rbx,%rdi
  401f05:	b8 00 00 00 00       	mov    $0x0,%eax
  401f0a:	e8 21 ed ff ff       	callq  400c30 <__sprintf_chk@plt>
  401f0f:	b8 00 00 00 00       	mov    $0x0,%eax
  401f14:	48 c7 c1 ff ff ff ff 	mov    $0xffffffffffffffff,%rcx
  401f1b:	48 89 df             	mov    %rbx,%rdi
  401f1e:	f2 ae                	repnz scas %es:(%rdi),%al
  401f20:	48 89 c8             	mov    %rcx,%rax
  401f23:	48 f7 d0             	not    %rax
  401f26:	4c 8d 68 ff          	lea    -0x1(%rax),%r13
  401f2a:	48 83 c4 10          	add    $0x10,%rsp
  401f2e:	4c 89 eb             	mov    %r13,%rbx
  401f31:	48 8d ac 24 50 20 00 	lea    0x2050(%rsp),%rbp
  401f38:	00 
  401f39:	4d 85 ed             	test   %r13,%r13
  401f3c:	0f 85 be fb ff ff    	jne    401b00 <submitr+0x39e>
  401f42:	e9 47 fc ff ff       	jmpq   401b8e <submitr+0x42c>
  401f47:	e8 b4 eb ff ff       	callq  400b00 <__stack_chk_fail@plt>
  401f4c:	48 81 c4 68 a0 00 00 	add    $0xa068,%rsp
  401f53:	5b                   	pop    %rbx
  401f54:	5d                   	pop    %rbp
  401f55:	41 5c                	pop    %r12
  401f57:	41 5d                	pop    %r13
  401f59:	41 5e                	pop    %r14
  401f5b:	41 5f                	pop    %r15
  401f5d:	c3                   	retq   

0000000000401f5e <init_timeout>:
init_timeout():
  401f5e:	85 ff                	test   %edi,%edi
  401f60:	74 22                	je     401f84 <init_timeout+0x26>
  401f62:	53                   	push   %rbx
  401f63:	89 fb                	mov    %edi,%ebx
  401f65:	be 42 16 40 00       	mov    $0x401642,%esi
  401f6a:	bf 0e 00 00 00       	mov    $0xe,%edi
  401f6f:	e8 ec eb ff ff       	callq  400b60 <signal@plt>
  401f74:	85 db                	test   %ebx,%ebx
  401f76:	bf 00 00 00 00       	mov    $0x0,%edi
  401f7b:	0f 49 fb             	cmovns %ebx,%edi
  401f7e:	e8 8d eb ff ff       	callq  400b10 <alarm@plt>
  401f83:	5b                   	pop    %rbx
  401f84:	f3 c3                	repz retq 

0000000000401f86 <init_driver>:
init_driver():
  401f86:	55                   	push   %rbp
  401f87:	53                   	push   %rbx
  401f88:	48 83 ec 28          	sub    $0x28,%rsp
  401f8c:	48 89 fd             	mov    %rdi,%rbp
  401f8f:	64 48 8b 04 25 28 00 	mov    %fs:0x28,%rax
  401f96:	00 00 
  401f98:	48 89 44 24 18       	mov    %rax,0x18(%rsp)
  401f9d:	31 c0                	xor    %eax,%eax
  401f9f:	be 01 00 00 00       	mov    $0x1,%esi
  401fa4:	bf 0d 00 00 00       	mov    $0xd,%edi
  401fa9:	e8 b2 eb ff ff       	callq  400b60 <signal@plt>
  401fae:	be 01 00 00 00       	mov    $0x1,%esi
  401fb3:	bf 1d 00 00 00       	mov    $0x1d,%edi
  401fb8:	e8 a3 eb ff ff       	callq  400b60 <signal@plt>
  401fbd:	be 01 00 00 00       	mov    $0x1,%esi
  401fc2:	bf 1d 00 00 00       	mov    $0x1d,%edi
  401fc7:	e8 94 eb ff ff       	callq  400b60 <signal@plt>
  401fcc:	ba 00 00 00 00       	mov    $0x0,%edx
  401fd1:	be 01 00 00 00       	mov    $0x1,%esi
  401fd6:	bf 02 00 00 00       	mov    $0x2,%edi
  401fdb:	e8 60 ec ff ff       	callq  400c40 <socket@plt>
  401fe0:	85 c0                	test   %eax,%eax
  401fe2:	79 4f                	jns    402033 <init_driver+0xad>
  401fe4:	48 b8 45 72 72 6f 72 	movabs $0x43203a726f727245,%rax
  401feb:	3a 20 43 
  401fee:	48 89 45 00          	mov    %rax,0x0(%rbp)
  401ff2:	48 b8 6c 69 65 6e 74 	movabs $0x6e7520746e65696c,%rax
  401ff9:	20 75 6e 
  401ffc:	48 89 45 08          	mov    %rax,0x8(%rbp)
  402000:	48 b8 61 62 6c 65 20 	movabs $0x206f7420656c6261,%rax
  402007:	74 6f 20 
  40200a:	48 89 45 10          	mov    %rax,0x10(%rbp)
  40200e:	48 b8 63 72 65 61 74 	movabs $0x7320657461657263,%rax
  402015:	65 20 73 
  402018:	48 89 45 18          	mov    %rax,0x18(%rbp)
  40201c:	c7 45 20 6f 63 6b 65 	movl   $0x656b636f,0x20(%rbp)
  402023:	66 c7 45 24 74 00    	movw   $0x74,0x24(%rbp)
  402029:	b8 ff ff ff ff       	mov    $0xffffffff,%eax
  40202e:	e9 0c 01 00 00       	jmpq   40213f <init_driver+0x1b9>
  402033:	89 c3                	mov    %eax,%ebx
  402035:	bf 40 27 40 00       	mov    $0x402740,%edi
  40203a:	e8 31 eb ff ff       	callq  400b70 <gethostbyname@plt>
  40203f:	48 85 c0             	test   %rax,%rax
  402042:	75 68                	jne    4020ac <init_driver+0x126>
  402044:	48 b8 45 72 72 6f 72 	movabs $0x44203a726f727245,%rax
  40204b:	3a 20 44 
  40204e:	48 89 45 00          	mov    %rax,0x0(%rbp)
  402052:	48 b8 4e 53 20 69 73 	movabs $0x6e7520736920534e,%rax
  402059:	20 75 6e 
  40205c:	48 89 45 08          	mov    %rax,0x8(%rbp)
  402060:	48 b8 61 62 6c 65 20 	movabs $0x206f7420656c6261,%rax
  402067:	74 6f 20 
  40206a:	48 89 45 10          	mov    %rax,0x10(%rbp)
  40206e:	48 b8 72 65 73 6f 6c 	movabs $0x2065766c6f736572,%rax
  402075:	76 65 20 
  402078:	48 89 45 18          	mov    %rax,0x18(%rbp)
  40207c:	48 b8 73 65 72 76 65 	movabs $0x6120726576726573,%rax
  402083:	72 20 61 
  402086:	48 89 45 20          	mov    %rax,0x20(%rbp)
  40208a:	c7 45 28 64 64 72 65 	movl   $0x65726464,0x28(%rbp)
  402091:	66 c7 45 2c 73 73    	movw   $0x7373,0x2c(%rbp)
  402097:	c6 45 2e 00          	movb   $0x0,0x2e(%rbp)
  40209b:	89 df                	mov    %ebx,%edi
  40209d:	e8 7e ea ff ff       	callq  400b20 <close@plt>
  4020a2:	b8 ff ff ff ff       	mov    $0xffffffff,%eax
  4020a7:	e9 93 00 00 00       	jmpq   40213f <init_driver+0x1b9>
  4020ac:	48 c7 04 24 00 00 00 	movq   $0x0,(%rsp)
  4020b3:	00 
  4020b4:	48 c7 44 24 08 00 00 	movq   $0x0,0x8(%rsp)
  4020bb:	00 00 
  4020bd:	66 c7 04 24 02 00    	movw   $0x2,(%rsp)
  4020c3:	48 63 50 14          	movslq 0x14(%rax),%rdx
  4020c7:	48 8b 40 18          	mov    0x18(%rax),%rax
  4020cb:	48 8d 7c 24 04       	lea    0x4(%rsp),%rdi
  4020d0:	b9 0c 00 00 00       	mov    $0xc,%ecx
  4020d5:	48 8b 30             	mov    (%rax),%rsi
  4020d8:	e8 a3 ea ff ff       	callq  400b80 <__memmove_chk@plt>
  4020dd:	66 c7 44 24 02 3b 6e 	movw   $0x6e3b,0x2(%rsp)
  4020e4:	ba 10 00 00 00       	mov    $0x10,%edx
  4020e9:	48 89 e6             	mov    %rsp,%rsi
  4020ec:	89 df                	mov    %ebx,%edi
  4020ee:	e8 fd ea ff ff       	callq  400bf0 <connect@plt>
  4020f3:	85 c0                	test   %eax,%eax
  4020f5:	79 32                	jns    402129 <init_driver+0x1a3>
  4020f7:	41 b8 40 27 40 00    	mov    $0x402740,%r8d
  4020fd:	b9 00 27 40 00       	mov    $0x402700,%ecx
  402102:	48 c7 c2 ff ff ff ff 	mov    $0xffffffffffffffff,%rdx
  402109:	be 01 00 00 00       	mov    $0x1,%esi
  40210e:	48 89 ef             	mov    %rbp,%rdi
  402111:	b8 00 00 00 00       	mov    $0x0,%eax
  402116:	e8 15 eb ff ff       	callq  400c30 <__sprintf_chk@plt>
  40211b:	89 df                	mov    %ebx,%edi
  40211d:	e8 fe e9 ff ff       	callq  400b20 <close@plt>
  402122:	b8 ff ff ff ff       	mov    $0xffffffff,%eax
  402127:	eb 16                	jmp    40213f <init_driver+0x1b9>
  402129:	89 df                	mov    %ebx,%edi
  40212b:	e8 f0 e9 ff ff       	callq  400b20 <close@plt>
  402130:	66 c7 45 00 4f 4b    	movw   $0x4b4f,0x0(%rbp)
  402136:	c6 45 02 00          	movb   $0x0,0x2(%rbp)
  40213a:	b8 00 00 00 00       	mov    $0x0,%eax
  40213f:	48 8b 4c 24 18       	mov    0x18(%rsp),%rcx
  402144:	64 48 33 0c 25 28 00 	xor    %fs:0x28,%rcx
  40214b:	00 00 
  40214d:	74 05                	je     402154 <init_driver+0x1ce>
  40214f:	e8 ac e9 ff ff       	callq  400b00 <__stack_chk_fail@plt>
  402154:	48 83 c4 28          	add    $0x28,%rsp
  402158:	5b                   	pop    %rbx
  402159:	5d                   	pop    %rbp
  40215a:	c3                   	retq   

000000000040215b <driver_post>:
driver_post():
  40215b:	53                   	push   %rbx
  40215c:	48 89 cb             	mov    %rcx,%rbx
  40215f:	85 d2                	test   %edx,%edx
  402161:	74 27                	je     40218a <driver_post+0x2f>
  402163:	48 89 f2             	mov    %rsi,%rdx
  402166:	be 4a 27 40 00       	mov    $0x40274a,%esi
  40216b:	bf 01 00 00 00       	mov    $0x1,%edi
  402170:	b8 00 00 00 00       	mov    $0x0,%eax
  402175:	e8 46 ea ff ff       	callq  400bc0 <__printf_chk@plt>
  40217a:	66 c7 03 4f 4b       	movw   $0x4b4f,(%rbx)
  40217f:	c6 43 02 00          	movb   $0x0,0x2(%rbx)
  402183:	b8 00 00 00 00       	mov    $0x0,%eax
  402188:	eb 43                	jmp    4021cd <driver_post+0x72>
  40218a:	48 85 ff             	test   %rdi,%rdi
  40218d:	74 30                	je     4021bf <driver_post+0x64>
  40218f:	80 3f 00             	cmpb   $0x0,(%rdi)
  402192:	74 2b                	je     4021bf <driver_post+0x64>
  402194:	48 83 ec 08          	sub    $0x8,%rsp
  402198:	51                   	push   %rcx
  402199:	49 89 f1             	mov    %rsi,%r9
  40219c:	41 b8 61 27 40 00    	mov    $0x402761,%r8d
  4021a2:	48 89 f9             	mov    %rdi,%rcx
  4021a5:	ba 6f 27 40 00       	mov    $0x40276f,%edx
  4021aa:	be 6e 3b 00 00       	mov    $0x3b6e,%esi
  4021af:	bf 40 27 40 00       	mov    $0x402740,%edi
  4021b4:	e8 a9 f5 ff ff       	callq  401762 <submitr>
  4021b9:	48 83 c4 10          	add    $0x10,%rsp
  4021bd:	eb 0e                	jmp    4021cd <driver_post+0x72>
  4021bf:	66 c7 03 4f 4b       	movw   $0x4b4f,(%rbx)
  4021c4:	c6 43 02 00          	movb   $0x0,0x2(%rbx)
  4021c8:	b8 00 00 00 00       	mov    $0x0,%eax
  4021cd:	5b                   	pop    %rbx
  4021ce:	c3                   	retq   
  4021cf:	90                   	nop

00000000004021d0 <__libc_csu_init>:
__libc_csu_init():
  4021d0:	41 57                	push   %r15
  4021d2:	41 56                	push   %r14
  4021d4:	41 89 ff             	mov    %edi,%r15d
  4021d7:	41 55                	push   %r13
  4021d9:	41 54                	push   %r12
  4021db:	4c 8d 25 2e 0c 20 00 	lea    0x200c2e(%rip),%r12        # 602e10 <__frame_dummy_init_array_entry>
  4021e2:	55                   	push   %rbp
  4021e3:	48 8d 2d 2e 0c 20 00 	lea    0x200c2e(%rip),%rbp        # 602e18 <__init_array_end>
  4021ea:	53                   	push   %rbx
  4021eb:	49 89 f6             	mov    %rsi,%r14
  4021ee:	49 89 d5             	mov    %rdx,%r13
  4021f1:	4c 29 e5             	sub    %r12,%rbp
  4021f4:	48 83 ec 08          	sub    $0x8,%rsp
  4021f8:	48 c1 fd 03          	sar    $0x3,%rbp
  4021fc:	e8 7f e8 ff ff       	callq  400a80 <_init>
  402201:	48 85 ed             	test   %rbp,%rbp
  402204:	74 20                	je     402226 <__libc_csu_init+0x56>
  402206:	31 db                	xor    %ebx,%ebx
  402208:	0f 1f 84 00 00 00 00 	nopl   0x0(%rax,%rax,1)
  40220f:	00 
  402210:	4c 89 ea             	mov    %r13,%rdx
  402213:	4c 89 f6             	mov    %r14,%rsi
  402216:	44 89 ff             	mov    %r15d,%edi
  402219:	41 ff 14 dc          	callq  *(%r12,%rbx,8)
  40221d:	48 83 c3 01          	add    $0x1,%rbx
  402221:	48 39 eb             	cmp    %rbp,%rbx
  402224:	75 ea                	jne    402210 <__libc_csu_init+0x40>
  402226:	48 83 c4 08          	add    $0x8,%rsp
  40222a:	5b                   	pop    %rbx
  40222b:	5d                   	pop    %rbp
  40222c:	41 5c                	pop    %r12
  40222e:	41 5d                	pop    %r13
  402230:	41 5e                	pop    %r14
  402232:	41 5f                	pop    %r15
  402234:	c3                   	retq   
  402235:	90                   	nop
  402236:	66 2e 0f 1f 84 00 00 	nopw   %cs:0x0(%rax,%rax,1)
  40223d:	00 00 00 

0000000000402240 <__libc_csu_fini>:
__libc_csu_fini():
  402240:	f3 c3                	repz retq 

Disassembly of section .fini:

0000000000402244 <_fini>:
_fini():
  402244:	48 83 ec 08          	sub    $0x8,%rsp
  402248:	48 83 c4 08          	add    $0x8,%rsp
  40224c:	c3                   	retq   
